;
; File generated by cc65 v 2.13.3
;
	.fopt		compiler,"cc65 v 2.13.3"
	.setcpu		"6502"
	.smart		on
	.autoimport	on
	.case		on
	.debuginfo	off
	.importzp	sp, sreg, regsave, regbank, tmp1, ptr1, ptr2
	.macpack	longbranch
	.forceimport	__STARTUP__
	.import		_pal_all
	.import		_pal_bright
	.import		_pal_spr_bright
	.import		_ppu_wait_frame
	.import		_ppu_on_all
	.import		_oam_clear
	.import		_oam_size
	.import		_oam_spr
	.import		_pad_poll
	.import		_scroll
	.import		_bank_spr
	.import		_bank_bg
	.import		_rand8
	.import		_rand16
	.import		_set_rand
	.import		_set_vram_update
	.import		_vram_adr
	.import		_vram_unrle
	.export		_menu_data
	.export		_isCellBulletFree
	.export		_damage_craft
	.export		_menu
	.export		_draw_tank
	.export		_draw_all
	.export		_init
	.export		_tick_bullets
	.export		_tick_crafts
	.export		_scroll_screen
	.export		_reset
	.export		_tick_enemies
	.export		_check_pause
	.export		_main

.segment	"DATA"

.segment	"ZEROPAGE"
.segment	"BSS"
.segment	"ZEROPAGE"
_blocked:
	.word	$0000
	.res	28,$00
_bullet_blocked:
	.word	$0000
	.res	28,$00
.segment	"BSS"
_sprite_dirs:
	.byte	$01
	.byte	$01
	.byte	$02
	.byte	$02
	.byte	$02
	.byte	$02
_sprite_look_dirs:
	.byte	$00
	.byte	$00
	.byte	$00
	.byte	$00
	.byte	$00
	.byte	$00
_craft_types:
	.byte	$00
	.byte	$01
	.byte	$01
	.byte	$01
	.byte	$01
	.byte	$01
_craft_hps:
	.byte	$00
	.byte	$01
	.byte	$01
	.byte	$01
	.byte	$01
	.byte	$01
_craft_flags:
	.byte	$00
	.byte	$00
	.byte	$00
	.byte	$00
	.byte	$00
	.byte	$00
_craft_lives:
	.byte	$03
	.byte	$03
_craft_bullet_y:
	.byte	$FF
	.res	11,$00
_craft_bullet_timers:
	.byte	$00
	.byte	$00
	.res	4,$00
_scr:
	.word	$0000
_last_row_index:
	.word	$0000
_adr:
	.word	$0000
_next_line:
	.byte	$00
	.res	17,$00
_current_line:
	.byte	$00
	.res	17,$00
_prev_line:
	.byte	$00
	.res	17,$00

.segment	"RODATA"

_palette:
	.byte	$29
	.byte	$27
	.byte	$17
	.byte	$07
	.byte	$29
	.byte	$27
	.byte	$19
	.byte	$18
	.byte	$29
	.byte	$0F
	.byte	$2D
	.byte	$3D
	.byte	$29
	.byte	$21
	.byte	$1C
	.byte	$0F
	.byte	$29
	.byte	$37
	.byte	$26
	.byte	$17
	.byte	$29
	.byte	$31
	.byte	$22
	.byte	$11
	.byte	$29
	.byte	$33
	.byte	$23
	.byte	$13
	.byte	$29
	.byte	$0F
	.byte	$30
	.byte	$30
_bg_colors:
	.byte	$01
	.byte	$00
	.byte	$03
	.byte	$01
	.byte	$01
	.byte	$00
_water_tiles:
	.byte	$BD
	.byte	$8C
	.byte	$AC
	.byte	$DC
	.byte	$BF
	.byte	$8C
	.byte	$9C
	.byte	$DF
	.byte	$BC
	.byte	$7C
	.byte	$AC
	.byte	$DD
	.byte	$BE
	.byte	$7C
	.byte	$9C
	.byte	$DE
_wall_tiles:
	.byte	$80
	.byte	$84
	.byte	$90
	.byte	$99
	.byte	$82
	.byte	$84
	.byte	$A0
	.byte	$98
	.byte	$70
	.byte	$74
	.byte	$90
	.byte	$9B
	.byte	$72
	.byte	$74
	.byte	$A0
	.byte	$9A
_menu_data:
	.byte	$02
	.byte	$68
	.byte	$A2
	.byte	$64
	.byte	$00
	.byte	$00
	.byte	$66
	.byte	$00
	.byte	$02
	.byte	$07
	.byte	$70
	.byte	$74
	.byte	$77
	.byte	$73
	.byte	$00
	.byte	$02
	.byte	$03
	.byte	$67
	.byte	$00
	.byte	$02
	.byte	$06
	.byte	$92
	.byte	$00
	.byte	$00
	.byte	$A1
	.byte	$00
	.byte	$68
	.byte	$00
	.byte	$02
	.byte	$09
	.byte	$81
	.byte	$86
	.byte	$84
	.byte	$82
	.byte	$00
	.byte	$02
	.byte	$03
	.byte	$69
	.byte	$00
	.byte	$69
	.byte	$68
	.byte	$00
	.byte	$02
	.byte	$03
	.byte	$90
	.byte	$00
	.byte	$00
	.byte	$A1
	.byte	$00
	.byte	$02
	.byte	$02
	.byte	$67
	.byte	$00
	.byte	$02
	.byte	$04
	.byte	$67
	.byte	$00
	.byte	$02
	.byte	$0A
	.byte	$63
	.byte	$00
	.byte	$00
	.byte	$70
	.byte	$77
	.byte	$74
	.byte	$76
	.byte	$9B
	.byte	$00
	.byte	$68
	.byte	$A2
	.byte	$63
	.byte	$00
	.byte	$00
	.byte	$68
	.byte	$00
	.byte	$02
	.byte	$13
	.byte	$90
	.byte	$00
	.byte	$02
	.byte	$05
	.byte	$A1
	.byte	$00
	.byte	$68
	.byte	$00
	.byte	$61
	.byte	$28
	.byte	$02
	.byte	$13
	.byte	$93
	.byte	$00
	.byte	$02
	.byte	$05
	.byte	$A2
	.byte	$63
	.byte	$00
	.byte	$00
	.byte	$64
	.byte	$28
	.byte	$5A
	.byte	$5B
	.byte	$02
	.byte	$0F
	.byte	$5C
	.byte	$28
	.byte	$91
	.byte	$00
	.byte	$65
	.byte	$00
	.byte	$00
	.byte	$68
	.byte	$00
	.byte	$A2
	.byte	$00
	.byte	$02
	.byte	$03
	.byte	$28
	.byte	$5F
	.byte	$5D
	.byte	$02
	.byte	$0F
	.byte	$5E
	.byte	$28
	.byte	$9B
	.byte	$68
	.byte	$00
	.byte	$02
	.byte	$04
	.byte	$A3
	.byte	$00
	.byte	$02
	.byte	$03
	.byte	$28
	.byte	$5F
	.byte	$5D
	.byte	$02
	.byte	$0F
	.byte	$5E
	.byte	$28
	.byte	$00
	.byte	$02
	.byte	$04
	.byte	$69
	.byte	$00
	.byte	$A0
	.byte	$00
	.byte	$64
	.byte	$00
	.byte	$00
	.byte	$28
	.byte	$5F
	.byte	$5D
	.byte	$2D
	.byte	$2E
	.byte	$2F
	.byte	$30
	.byte	$31
	.byte	$32
	.byte	$33
	.byte	$34
	.byte	$35
	.byte	$36
	.byte	$37
	.byte	$38
	.byte	$39
	.byte	$3A
	.byte	$5D
	.byte	$5E
	.byte	$28
	.byte	$00
	.byte	$02
	.byte	$06
	.byte	$A3
	.byte	$00
	.byte	$00
	.byte	$62
	.byte	$00
	.byte	$28
	.byte	$5F
	.byte	$5D
	.byte	$3B
	.byte	$3C
	.byte	$3D
	.byte	$3E
	.byte	$3F
	.byte	$40
	.byte	$41
	.byte	$42
	.byte	$43
	.byte	$44
	.byte	$45
	.byte	$46
	.byte	$47
	.byte	$48
	.byte	$5D
	.byte	$5E
	.byte	$28
	.byte	$00
	.byte	$02
	.byte	$06
	.byte	$A3
	.byte	$00
	.byte	$02
	.byte	$03
	.byte	$28
	.byte	$5F
	.byte	$5D
	.byte	$02
	.byte	$0F
	.byte	$5E
	.byte	$28
	.byte	$00
	.byte	$66
	.byte	$00
	.byte	$02
	.byte	$04
	.byte	$A0
	.byte	$00
	.byte	$02
	.byte	$03
	.byte	$28
	.byte	$5F
	.byte	$5D
	.byte	$02
	.byte	$03
	.byte	$49
	.byte	$4A
	.byte	$4B
	.byte	$4C
	.byte	$4B
	.byte	$4C
	.byte	$4D
	.byte	$4E
	.byte	$5D
	.byte	$02
	.byte	$03
	.byte	$5E
	.byte	$28
	.byte	$85
	.byte	$87
	.byte	$02
	.byte	$02
	.byte	$99
	.byte	$00
	.byte	$00
	.byte	$A3
	.byte	$00
	.byte	$02
	.byte	$03
	.byte	$28
	.byte	$5F
	.byte	$5D
	.byte	$02
	.byte	$03
	.byte	$4F
	.byte	$50
	.byte	$51
	.byte	$52
	.byte	$51
	.byte	$53
	.byte	$54
	.byte	$55
	.byte	$5D
	.byte	$02
	.byte	$03
	.byte	$5E
	.byte	$28
	.byte	$00
	.byte	$02
	.byte	$03
	.byte	$90
	.byte	$00
	.byte	$00
	.byte	$A3
	.byte	$00
	.byte	$02
	.byte	$03
	.byte	$28
	.byte	$5F
	.byte	$5D
	.byte	$02
	.byte	$03
	.byte	$56
	.byte	$02
	.byte	$02
	.byte	$5D
	.byte	$56
	.byte	$5D
	.byte	$56
	.byte	$5D
	.byte	$02
	.byte	$04
	.byte	$5E
	.byte	$28
	.byte	$00
	.byte	$02
	.byte	$02
	.byte	$60
	.byte	$93
	.byte	$00
	.byte	$00
	.byte	$A0
	.byte	$00
	.byte	$00
	.byte	$71
	.byte	$72
	.byte	$28
	.byte	$5F
	.byte	$5D
	.byte	$02
	.byte	$0F
	.byte	$5E
	.byte	$28
	.byte	$00
	.byte	$02
	.byte	$03
	.byte	$93
	.byte	$67
	.byte	$68
	.byte	$A2
	.byte	$00
	.byte	$00
	.byte	$92
	.byte	$A0
	.byte	$28
	.byte	$57
	.byte	$58
	.byte	$02
	.byte	$0F
	.byte	$59
	.byte	$28
	.byte	$00
	.byte	$00
	.byte	$62
	.byte	$00
	.byte	$93
	.byte	$00
	.byte	$00
	.byte	$9A
	.byte	$75
	.byte	$77
	.byte	$9B
	.byte	$A3
	.byte	$28
	.byte	$02
	.byte	$13
	.byte	$00
	.byte	$00
	.byte	$61
	.byte	$00
	.byte	$92
	.byte	$00
	.byte	$02
	.byte	$03
	.byte	$98
	.byte	$85
	.byte	$82
	.byte	$28
	.byte	$02
	.byte	$13
	.byte	$65
	.byte	$00
	.byte	$00
	.byte	$60
	.byte	$90
	.byte	$00
	.byte	$02
	.byte	$02
	.byte	$68
	.byte	$A1
	.byte	$BC
	.byte	$BE
	.byte	$28
	.byte	$02
	.byte	$03
	.byte	$05
	.byte	$28
	.byte	$1D
	.byte	$19
	.byte	$0E
	.byte	$26
	.byte	$12
	.byte	$1F
	.byte	$28
	.byte	$14
	.byte	$0E
	.byte	$1A
	.byte	$12
	.byte	$28
	.byte	$02
	.byte	$02
	.byte	$00
	.byte	$02
	.byte	$03
	.byte	$93
	.byte	$00
	.byte	$68
	.byte	$98
	.byte	$86
	.byte	$83
	.byte	$AC
	.byte	$9E
	.byte	$28
	.byte	$02
	.byte	$13
	.byte	$00
	.byte	$02
	.byte	$02
	.byte	$60
	.byte	$90
	.byte	$00
	.byte	$00
	.byte	$A0
	.byte	$00
	.byte	$66
	.byte	$AF
	.byte	$DE
	.byte	$28
	.byte	$02
	.byte	$03
	.byte	$06
	.byte	$28
	.byte	$1D
	.byte	$19
	.byte	$0E
	.byte	$26
	.byte	$12
	.byte	$1F
	.byte	$28
	.byte	$14
	.byte	$0E
	.byte	$1A
	.byte	$12
	.byte	$28
	.byte	$02
	.byte	$02
	.byte	$00
	.byte	$66
	.byte	$00
	.byte	$00
	.byte	$91
	.byte	$00
	.byte	$00
	.byte	$A3
	.byte	$00
	.byte	$00
	.byte	$AF
	.byte	$28
	.byte	$02
	.byte	$14
	.byte	$00
	.byte	$02
	.byte	$03
	.byte	$90
	.byte	$66
	.byte	$00
	.byte	$A3
	.byte	$00
	.byte	$00
	.byte	$AD
	.byte	$28
	.byte	$02
	.byte	$04
	.byte	$12
	.byte	$1B
	.byte	$21
	.byte	$12
	.byte	$1F
	.byte	$28
	.byte	$10
	.byte	$04
	.byte	$11
	.byte	$12
	.byte	$28
	.byte	$02
	.byte	$05
	.byte	$00
	.byte	$00
	.byte	$68
	.byte	$00
	.byte	$90
	.byte	$00
	.byte	$00
	.byte	$A3
	.byte	$00
	.byte	$66
	.byte	$BD
	.byte	$8D
	.byte	$28
	.byte	$02
	.byte	$13
	.byte	$00
	.byte	$02
	.byte	$02
	.byte	$62
	.byte	$90
	.byte	$00
	.byte	$00
	.byte	$A2
	.byte	$00
	.byte	$02
	.byte	$04
	.byte	$67
	.byte	$00
	.byte	$02
	.byte	$03
	.byte	$71
	.byte	$76
	.byte	$76
	.byte	$74
	.byte	$76
	.byte	$77
	.byte	$77
	.byte	$73
	.byte	$00
	.byte	$65
	.byte	$00
	.byte	$02
	.byte	$03
	.byte	$BC
	.byte	$BE
	.byte	$70
	.byte	$75
	.byte	$9B
	.byte	$00
	.byte	$00
	.byte	$A2
	.byte	$00
	.byte	$00
	.byte	$60
	.byte	$00
	.byte	$00
	.byte	$68
	.byte	$64
	.byte	$00
	.byte	$61
	.byte	$00
	.byte	$92
	.byte	$00
	.byte	$02
	.byte	$03
	.byte	$98
	.byte	$84
	.byte	$83
	.byte	$00
	.byte	$02
	.byte	$02
	.byte	$69
	.byte	$00
	.byte	$00
	.byte	$AC
	.byte	$9E
	.byte	$80
	.byte	$87
	.byte	$99
	.byte	$00
	.byte	$00
	.byte	$A2
	.byte	$00
	.byte	$02
	.byte	$09
	.byte	$94
	.byte	$79
	.byte	$7A
	.byte	$79
	.byte	$7A
	.byte	$97
	.byte	$00
	.byte	$63
	.byte	$00
	.byte	$02
	.byte	$05
	.byte	$AC
	.byte	$DE
	.byte	$7F
	.byte	$BE
	.byte	$93
	.byte	$00
	.byte	$00
	.byte	$A1
	.byte	$00
	.byte	$02
	.byte	$02
	.byte	$62
	.byte	$00
	.byte	$02
	.byte	$05
	.byte	$A5
	.byte	$8B
	.byte	$89
	.byte	$88
	.byte	$8A
	.byte	$A6
	.byte	$00
	.byte	$02
	.byte	$03
	.byte	$62
	.byte	$00
	.byte	$02
	.byte	$02
	.byte	$AD
	.byte	$DF
	.byte	$8C
	.byte	$BF
	.byte	$91
	.byte	$00
	.byte	$00
	.byte	$A3
	.byte	$00
	.byte	$02
	.byte	$07
	.byte	$67
	.byte	$00
	.byte	$02
	.byte	$03
	.byte	$61
	.byte	$69
	.byte	$00
	.byte	$02
	.byte	$02
	.byte	$BC
	.byte	$7E
	.byte	$7F
	.byte	$7C
	.byte	$7E
	.byte	$7E
	.byte	$DD
	.byte	$9E
	.byte	$00
	.byte	$00
	.byte	$92
	.byte	$00
	.byte	$00
	.byte	$A1
	.byte	$00
	.byte	$67
	.byte	$00
	.byte	$02
	.byte	$08
	.byte	$65
	.byte	$00
	.byte	$68
	.byte	$00
	.byte	$02
	.byte	$03
	.byte	$BD
	.byte	$8C
	.byte	$8D
	.byte	$8F
	.byte	$8D
	.byte	$8C
	.byte	$8F
	.byte	$BF
	.byte	$00
	.byte	$00
	.byte	$90
	.byte	$00
	.byte	$44
	.byte	$00
	.byte	$02
	.byte	$03
	.byte	$40
	.byte	$00
	.byte	$00
	.byte	$04
	.byte	$89
	.byte	$AA
	.byte	$02
	.byte	$03
	.byte	$22
	.byte	$01
	.byte	$04
	.byte	$89
	.byte	$AA
	.byte	$02
	.byte	$03
	.byte	$22
	.byte	$00
	.byte	$00
	.byte	$88
	.byte	$AA
	.byte	$02
	.byte	$03
	.byte	$22
	.byte	$11
	.byte	$00
	.byte	$B8
	.byte	$AA
	.byte	$02
	.byte	$03
	.byte	$26
	.byte	$11
	.byte	$00
	.byte	$BB
	.byte	$AA
	.byte	$02
	.byte	$03
	.byte	$22
	.byte	$10
	.byte	$00
	.byte	$11
	.byte	$05
	.byte	$00
	.byte	$40
	.byte	$41
	.byte	$CC
	.byte	$30
	.byte	$00
	.byte	$02
	.byte	$02
	.byte	$05
	.byte	$00
	.byte	$0F
	.byte	$0F
	.byte	$00
	.byte	$00
	.byte	$02
	.byte	$00

.segment	"BSS"

.segment	"ZEROPAGE"
_temp0:
	.res	1,$00
_temp1:
	.res	1,$00
_temp2:
	.res	1,$00
_temp3:
	.res	1,$00
_temp4:
	.res	1,$00
_temp5:
	.res	1,$00
_temp6:
	.res	1,$00
_temp7:
	.res	1,$00
_int_temp0:
	.res	2,$00
.segment	"BSS"
.segment	"ZEROPAGE"
_i:
	.res	1,$00
_j:
	.res	1,$00
_craft_x:
	.res	6,$00
_craft_y:
	.res	6,$00
.segment	"BSS"
_spr:
	.res	1,$00
_frame:
	.res	1,$00
_update_list:
	.res	47,$00
_enemy_spawn_scr:
	.res	1,$00
_wall_hit_x:
	.res	2,$00
_wall_hit_y:
	.res	2,$00
_wall_hit_hp:
	.res	2,$00
_wall_count:
	.res	1,$00
_has_big_wall:
	.res	1,$00
_craft_bullet_x:
	.res	12,$00
_craft_bullet_flag:
	.res	12,$00

; ---------------------------------------------------------------
; unsigned char __near__ __fastcall__ isCellBulletFree (unsigned char, unsigned char)
; ---------------------------------------------------------------

.segment	"CODE"

.proc	_isCellBulletFree: near

.segment	"CODE"

;
; unsigned char __fastcall__ isCellBulletFree(unsigned char i, unsigned char j){
;
	jsr     pusha
;
; return !(bullet_blocked[j] & (1<<(i)));
;
	ldx     #$00
	lda     (sp,x)
	asl     a
	bcc     L0EA3
	inx
	clc
L0EA3:	adc     #<(_bullet_blocked)
	sta     ptr1
	txa
	adc     #>(_bullet_blocked)
	sta     ptr1+1
	ldy     #$01
	lda     (ptr1),y
	tax
	dey
	lda     (ptr1),y
	jsr     pushax
	lda     #$01
	jsr     pusha0
	ldy     #$05
	lda     (sp),y
	jsr     tosaslax
	jsr     tosandax
	jsr     bnegax
;
; }
;
	jmp     incsp2

.endproc

; ---------------------------------------------------------------
; unsigned char __near__ damage_craft (unsigned char, unsigned char)
; ---------------------------------------------------------------

.segment	"CODE"

.proc	_damage_craft: near

.segment	"CODE"

;
; if(craft_hps[index] > damage){
;
	ldy     #$01
	lda     (sp),y
	tay
	lda     _craft_hps,y
	sec
	ldy     #$00
	sbc     (sp),y
	bcc     L035D
	beq     L035D
;
; craft_hps[index]  -= damage;
;
	lda     #<(_craft_hps)
	ldx     #>(_craft_hps)
	iny
	clc
	adc     (sp),y
	bcc     L0363
	inx
L0363:	sta     sreg
	stx     sreg+1
	sta     ptr1
	stx     ptr1+1
	dey
	ldx     #$00
	lda     (ptr1),y
	sec
	sbc     (sp),y
	sta     (sreg),y
;
; return 0;
;
	txa
	jmp     incsp2
;
; craft_hps[index] = 0;
;
L035D:	lda     #<(_craft_hps)
	ldx     #>(_craft_hps)
	iny
	clc
	adc     (sp),y
	bcc     L0368
	inx
L0368:	sta     ptr1
	stx     ptr1+1
	lda     #$00
	dey
	sta     (ptr1),y
;
; return 1;
;
	tax
	lda     #$01
;
; }
;
	jmp     incsp2

.endproc

; ---------------------------------------------------------------
; void __near__ menu (void)
; ---------------------------------------------------------------

.segment	"CODE"

.proc	_menu: near

.segment	"CODE"

;
; selected_item = 0;
;
	lda     #$00
	sta     _temp0
;
; old_pad = 0;
;
	sta     _temp1
;
; ++frame;
;
L0370:	inc     _frame
;
; ppu_wait_frame();
;
	jsr     _ppu_wait_frame
;
; spr = 0;
;
	lda     #$00
	sta     _spr
;
; pad=pad_poll(0)|pad_poll(1);
;
	jsr     _pad_poll
	jsr     pushax
	lda     #$01
	jsr     _pad_poll
	jsr     tosorax
	sta     _temp2
;
; if(old_pad != pad){
;
	cmp     _temp1
	beq     L039E
;
; old_pad = pad;
;
	lda     _temp2
	sta     _temp1
;
; if(pad&PAD_UP){
;
	lda     _temp2
	and     #$10
	beq     L037F
;
; --selected_item;
;
	dec     _temp0
;
; if(selected_item == 255) selected_item = 2;
;
	lda     _temp0
	cmp     #$FF
	bne     L039E
	lda     #$02
	sta     _temp0
;
; } else if(pad&PAD_DOWN){
;
	jmp     L039E
L037F:	lda     _temp2
	and     #$20
	beq     L0387
;
; ++selected_item;
;
	inc     _temp0
;
; if(selected_item == 3) selected_item = 0;
;
	lda     _temp0
	cmp     #$03
	bne     L039E
	lda     #$00
	sta     _temp0
;
; } else if(pad&(PAD_A|PAD_B|PAD_START|PAD_SELECT)){
;
	jmp     L039E
L0387:	lda     _temp2
	and     #$0F
	beq     L039E
;
; if(selected_item == 0){
;
	lda     _temp0
	bne     L0392
;
; craft_lives[0] = 3;
;
	lda     #$03
	sta     _craft_lives
;
; craft_lives[1] = 0;
;
	lda     #$00
	sta     _craft_lives+1
;
; craft_types[1] = 255;
;
	lda     #$FF
	sta     _craft_types+1
;
; break;
;
	rts
;
; }else if(selected_item == 1){
;
L0392:	lda     _temp0
	cmp     #$01
	bne     L039E
;
; craft_lives[0] = 3;
;
	lda     #$03
	sta     _craft_lives
;
; craft_lives[1] = 3;
;
	sta     _craft_lives+1
;
; break;
;
	rts
;
; spr=oam_spr(61,   139 + selected_item * 16, 0x24, 1, spr);
;
L039E:	jsr     decsp4
	lda     #$3D
	ldy     #$03
	sta     (sp),y
	ldx     #$00
	lda     _temp0
	jsr     shlax4
	clc
	adc     #$8B
	dey
	sta     (sp),y
	lda     #$24
	dey
	sta     (sp),y
	tya
	dey
	sta     (sp),y
	lda     _spr
	jsr     _oam_spr
	sta     _spr
;
; spr=oam_spr(61+8, 139 + selected_item * 16, 0x34, 1, spr);
;
	jsr     decsp4
	lda     #$45
	ldy     #$03
	sta     (sp),y
	ldx     #$00
	lda     _temp0
	jsr     shlax4
	clc
	adc     #$8B
	dey
	sta     (sp),y
	lda     #$34
	dey
	sta     (sp),y
	tya
	dey
	sta     (sp),y
	lda     _spr
	jsr     _oam_spr
	sta     _spr
;
; }
;
	jmp     L0370

.endproc

; ---------------------------------------------------------------
; void __near__ draw_tank (void)
; ---------------------------------------------------------------

.segment	"CODE"

.proc	_draw_tank: near

.segment	"CODE"

;
; craft_sprite = craft_types[i]?0x00:0x40;
;
	ldy     _i
	lda     _craft_types,y
	beq     L03BB
	lda     #$00
	jmp     L03BD
L03BB:	lda     #$40
L03BD:	sta     _temp0
;
; switch(sprite_dirs[i]){
;
	ldy     _i
	lda     _sprite_dirs,y
;
; }
;
	cmp     #$01
	beq     L03C5
	cmp     #$02
	beq     L03D1
	cmp     #$04
	beq     L03D7
	cmp     #$08
	beq     L03CB
	jmp     L03C3
;
; craft_sprite += 0x04;
;
L03C5:	lda     #$04
	clc
	adc     _temp0
	sta     _temp0
;
; craft_sprite_prop = 0;
;
	lda     #$00
;
; break;
;
	jmp     L0EA6
;
; craft_sprite += 0x24;
;
L03CB:	lda     #$24
	clc
	adc     _temp0
	sta     _temp0
;
; craft_sprite_prop = 0;
;
	lda     #$00
;
; break;
;
	jmp     L0EA6
;
; craft_sprite += 0x04;
;
L03D1:	lda     #$04
	clc
	adc     _temp0
	sta     _temp0
;
; craft_sprite_prop = OAM_FLIP_V;
;
	lda     #$80
;
; break;
;
	jmp     L0EA6
;
; craft_sprite += 0x34;
;
L03D7:	lda     #$34
	clc
	adc     _temp0
	sta     _temp0
;
; craft_sprite_prop = OAM_FLIP_H;
;
	lda     #$40
L0EA6:	sta     _temp1
;
; if(sprite_look_dirs[i] == DIR_LEFT){
;
L03C3:	ldy     _i
	lda     _sprite_look_dirs,y
	cmp     #$04
	bne     L03DC
;
; craft_sprite += 0x08;
;
	lda     #$08
;
; }else if(sprite_look_dirs[i] == DIR_RIGHT){
;
	jmp     L0EA9
L03DC:	ldy     _i
	lda     _sprite_look_dirs,y
	cmp     #$08
	bne     L03E3
;
; craft_sprite += 0x04;
;
	lda     #$04
L0EA9:	clc
	adc     _temp0
	sta     _temp0
;
; if(i < 2){
;
L03E3:	lda     _i
	cmp     #$02
	bcs     L03E9
;
; if((frame & 8) == (i?8:0)&& (pad_poll(i)&(PAD_LEFT|PAD_RIGHT|PAD_UP|PAD_DOWN))){
;
	lda     _frame
	ldx     #$00
	and     #$08
	sta     ptr1
	stx     ptr1+1
	lda     _i
	beq     L03F1
	lda     #$08
L03F1:	cpx     ptr1+1
	bne     L03EB
	cmp     ptr1
	bne     L03EB
	lda     _i
	jsr     _pad_poll
	and     #$F0
	beq     L03EB
;
; craft_sprite += 2;
;
	lda     #$02
	clc
	adc     _temp0
	sta     _temp0
;
; craft_sprite_prop = i | craft_sprite_prop;
;
L03EB:	lda     _temp1
	ora     _i
	sta     _temp1
;
; }else{
;
	jmp     L03FF
;
; craft_sprite_prop |= 2;
;
L03E9:	lda     _temp1
	ora     #$02
	sta     _temp1
;
; if(frame & 8){
;
	lda     _frame
	and     #$08
	beq     L03FF
;
; craft_sprite += 2;
;
	lda     #$02
	clc
	adc     _temp0
	sta     _temp0
;
; spr=oam_spr(craft_x[i]-8, craft_y[i]-8, craft_sprite, craft_sprite_prop, spr);
;
L03FF:	jsr     decsp4
	ldy     _i
	lda     _craft_x,y
	sec
	sbc     #$08
	ldy     #$03
	sta     (sp),y
	ldy     _i
	lda     _craft_y,y
	sec
	sbc     #$08
	ldy     #$02
	sta     (sp),y
	lda     _temp0
	dey
	sta     (sp),y
	lda     _temp1
	dey
	sta     (sp),y
	lda     _spr
	jsr     _oam_spr
	sta     _spr
;
; spr=oam_spr(craft_x[i],   craft_y[i]-8, craft_sprite^0x10, craft_sprite_prop, spr);
;
	jsr     decsp4
	ldy     _i
	lda     _craft_x,y
	ldy     #$03
	sta     (sp),y
	ldy     _i
	lda     _craft_y,y
	sec
	sbc     #$08
	ldy     #$02
	sta     (sp),y
	lda     _temp0
	eor     #$10
	dey
	sta     (sp),y
	lda     _temp1
	dey
	sta     (sp),y
	lda     _spr
	jsr     _oam_spr
	sta     _spr
;
; }
;
	rts

.endproc

; ---------------------------------------------------------------
; void __near__ draw_all (void)
; ---------------------------------------------------------------

.segment	"CODE"

.proc	_draw_all: near

.segment	"CODE"

;
; for(i=0;i<6; i++){
;
	lda     #$00
L0EAA:	sta     _i
	cmp     #$06
	bcs     L041E
;
; if(craft_types[i] == 255) continue;
;
	ldy     _i
	lda     _craft_types,y
	cmp     #$FF
	beq     L041F
;
; draw_tank();
;
	jsr     _draw_tank
;
; if(i<2){
;
	lda     _i
	cmp     #$02
	bcs     L041F
;
; craft_hp_sprite = (craft_hps[i]&254);
;
	ldy     _i
	lda     _craft_hps,y
	and     #$FE
	sta     _temp1
;
; if((craft_hps[i]&1) && !(frame&16)){
;
	ldy     _i
	lda     _craft_hps,y
	and     #$01
	beq     L0431
	lda     _frame
	and     #$10
	bne     L0431
;
; craft_hp_sprite += 2;
;
	lda     #$02
	clc
	adc     _temp1
	sta     _temp1
;
; spr=oam_spr(i?256-20-8:20, 210, 0xA0+craft_hp_sprite, i, spr);
;
L0431:	jsr     decsp4
	lda     _i
	beq     L043E
	lda     #$E4
	jmp     L0440
L043E:	lda     #$14
L0440:	ldy     #$03
	sta     (sp),y
	lda     #$D2
	dey
	sta     (sp),y
	lda     _temp1
	clc
	adc     #$A0
	dey
	sta     (sp),y
	lda     _i
	dey
	sta     (sp),y
	lda     _spr
	jsr     _oam_spr
	sta     _spr
;
; for(i=0;i<6; i++){
;
L041F:	lda     _i
	clc
	adc     #$01
	jmp     L0EAA
;
; for(i=0; i<ENEMY_BULLET_COUNT; ++i){
;
L041E:	lda     #$00
	sta     _i
L0447:	lda     _i
	cmp     #$0C
	bcs     L0448
;
; if(craft_bullet_y[i] == 255) continue;
;
	ldy     _i
	lda     _craft_bullet_y,y
	cmp     #$FF
	beq     L0449
;
; spr=oam_spr(craft_bullet_x[i]-2, craft_bullet_y[i]-2, 0x80, i<CRAFT_BULLET_COUNT?i&1:2, spr);
;
	jsr     decsp4
	ldy     _i
	lda     _craft_bullet_x,y
	sec
	sbc     #$02
	ldy     #$03
	sta     (sp),y
	ldy     _i
	lda     _craft_bullet_y,y
	sec
	sbc     #$02
	ldy     #$02
	sta     (sp),y
	lda     #$80
	dey
	sta     (sp),y
	lda     _i
	cmp     #$08
	bcs     L045F
	lda     _i
	and     #$01
	jmp     L0461
L045F:	lda     #$02
L0461:	dey
	sta     (sp),y
	lda     _spr
	jsr     _oam_spr
	sta     _spr
;
; for(i=0; i<ENEMY_BULLET_COUNT; ++i){
;
L0449:	inc     _i
	jmp     L0447
;
; }
;
L0448:	rts

.endproc

; ---------------------------------------------------------------
; void __near__ init (void)
; ---------------------------------------------------------------

.segment	"CODE"

.proc	_init: near

.segment	"CODE"

;
; oam_size(1);
;
	lda     #$01
	jsr     _oam_size
;
; bank_spr(0);
;
	lda     #$00
	jsr     _bank_spr
;
; bank_bg(1);
;
	lda     #$01
	jsr     _bank_bg
;
; pal_all(palette);
;
	lda     #<(_palette)
	ldx     #>(_palette)
	jsr     _pal_all
;
; vram_adr(NAMETABLE_A);
;
	ldx     #$20
	lda     #$00
	jsr     _vram_adr
;
; vram_unrle(menu_data);
;
	lda     #<(_menu_data)
	ldx     #>(_menu_data)
	jsr     _vram_unrle
;
; update_list[0]=NT_UPD_EOF;
;
	lda     #$FF
	sta     _update_list
;
; update_list[1]=0x00;
;
	lda     #$00
	sta     _update_list+1
;
; update_list[2]=32;
;
	lda     #$20
	sta     _update_list+2
;
; update_list[35]=0x20|NT_UPD_HORZ;
;
	lda     #$60
	sta     _update_list+35
;
; update_list[36]=0x00;
;
	lda     #$00
	sta     _update_list+36
;
; update_list[37]=8;//length of attribute update sequence
;
	lda     #$08
	sta     _update_list+37
;
; update_list[46]=NT_UPD_EOF;
;
	lda     #$FF
	sta     _update_list+46
;
; set_vram_update(update_list);
;
	lda     #<(_update_list)
	ldx     #>(_update_list)
	jsr     _set_vram_update
;
; ppu_on_all();
;
	jsr     _ppu_on_all
;
; frame=0;
;
	lda     #$00
	sta     _frame
;
; }
;
	rts

.endproc

; ---------------------------------------------------------------
; void __near__ tick_bullets (void)
; ---------------------------------------------------------------

.segment	"CODE"

.proc	_tick_bullets: near

.segment	"CODE"

;
; for(i=0; i<ENEMY_BULLET_COUNT; ++i){
;
	lda     #$00
	sta     _i
L048C:	lda     _i
	cmp     #$0C
	bcc     L0ED4
;
; }
;
	rts
;
; if(craft_bullet_y[i] == 255) continue;
;
L0ED4:	ldy     _i
	lda     _craft_bullet_y,y
	cmp     #$FF
	jeq     L048E
;
; switch(craft_bullet_flag[i] & 0xF){ // bullet_dir
;
	ldy     _i
	lda     _craft_bullet_flag,y
	and     #$0F
;
; }
;
	cmp     #$01
	beq     L049E
	cmp     #$02
	jeq     L04C0
	cmp     #$04
	jeq     L04D1
	cmp     #$05
	jeq     L04D8
	cmp     #$06
	jeq     L04C7
	cmp     #$08
	beq     L04AF
	cmp     #$09
	beq     L04A5
	cmp     #$0A
	beq     L04B6
	jmp     L049C
;
; craft_bullet_y[i] -= 3;
;
L049E:	lda     #<(_craft_bullet_y)
	ldx     #>(_craft_bullet_y)
	clc
	adc     _i
	bcc     L04A1
	inx
L04A1:	sta     ptr1
	stx     ptr1+1
	ldy     #$00
	lda     (ptr1),y
	sec
	sbc     #$03
;
; break;
;
	jmp     L0EBD
;
; craft_bullet_y[i] -= 2;
;
L04A5:	lda     #<(_craft_bullet_y)
	ldx     #>(_craft_bullet_y)
	clc
	adc     _i
	bcc     L04A8
	inx
L04A8:	sta     ptr1
	stx     ptr1+1
	ldy     #$00
	lda     (ptr1),y
	sec
	sbc     #$02
	sta     (ptr1),y
;
; craft_bullet_x[i] += 2;
;
	lda     #<(_craft_bullet_x)
	ldx     #>(_craft_bullet_x)
	clc
	adc     _i
	bcc     L04AC
	inx
L04AC:	sta     ptr1
	stx     ptr1+1
	lda     (ptr1),y
	clc
	adc     #$02
;
; break;
;
	jmp     L0EBD
;
; craft_bullet_x[i] += 3;
;
L04AF:	lda     #<(_craft_bullet_x)
	ldx     #>(_craft_bullet_x)
	clc
	adc     _i
	bcc     L04B2
	inx
L04B2:	sta     ptr1
	stx     ptr1+1
	ldy     #$00
	lda     (ptr1),y
	clc
	adc     #$03
;
; break;
;
	jmp     L0EBD
;
; craft_bullet_y[i] += 2;
;
L04B6:	lda     #<(_craft_bullet_y)
	ldx     #>(_craft_bullet_y)
	clc
	adc     _i
	bcc     L04B9
	inx
L04B9:	sta     ptr1
	stx     ptr1+1
	ldy     #$00
	lda     (ptr1),y
	clc
	adc     #$02
	sta     (ptr1),y
;
; craft_bullet_x[i] += 2;
;
	lda     #<(_craft_bullet_x)
	ldx     #>(_craft_bullet_x)
	clc
	adc     _i
	bcc     L04BD
	inx
L04BD:	sta     ptr1
	stx     ptr1+1
	lda     (ptr1),y
	clc
	adc     #$02
;
; break;
;
	jmp     L0EBD
;
; craft_bullet_y[i] += 3;
;
L04C0:	lda     #<(_craft_bullet_y)
	ldx     #>(_craft_bullet_y)
	clc
	adc     _i
	bcc     L04C3
	inx
L04C3:	sta     ptr1
	stx     ptr1+1
	ldy     #$00
	lda     (ptr1),y
	clc
	adc     #$03
;
; break;
;
	jmp     L0EBD
;
; craft_bullet_y[i] += 2;
;
L04C7:	lda     #<(_craft_bullet_y)
	ldx     #>(_craft_bullet_y)
	clc
	adc     _i
	bcc     L04CA
	inx
L04CA:	sta     ptr1
	stx     ptr1+1
	ldy     #$00
	lda     (ptr1),y
	clc
	adc     #$02
;
; break;
;
	jmp     L0ED3
;
; craft_bullet_x[i] -= 3;
;
L04D1:	lda     #<(_craft_bullet_x)
	ldx     #>(_craft_bullet_x)
	clc
	adc     _i
	bcc     L04D4
	inx
L04D4:	sta     ptr1
	stx     ptr1+1
	ldy     #$00
	lda     (ptr1),y
	sec
	sbc     #$03
;
; break;
;
	jmp     L0EBD
;
; craft_bullet_y[i] -= 2;
;
L04D8:	lda     #<(_craft_bullet_y)
	ldx     #>(_craft_bullet_y)
	clc
	adc     _i
	bcc     L04DB
	inx
L04DB:	sta     ptr1
	stx     ptr1+1
	ldy     #$00
	lda     (ptr1),y
	sec
	sbc     #$02
L0ED3:	sta     (ptr1),y
;
; craft_bullet_x[i] -= 2;
;
	lda     #<(_craft_bullet_x)
	ldx     #>(_craft_bullet_x)
	clc
	adc     _i
	bcc     L04DF
	inx
L04DF:	sta     ptr1
	stx     ptr1+1
	lda     (ptr1),y
	sec
	sbc     #$02
L0EBD:	sta     (ptr1),y
;
; if(craft_bullet_y[i] < 10 || craft_bullet_x[i] >= 245 || craft_bullet_y[i] >= 245 || craft_bullet_y[i] < 10){
;
L049C:	ldy     _i
	lda     _craft_bullet_y,y
	cmp     #$0A
	bcc     L04E2
	ldy     _i
	lda     _craft_bullet_x,y
	cmp     #$F5
	bcs     L04E2
	ldy     _i
	lda     _craft_bullet_y,y
	cmp     #$F5
	bcs     L04E2
	ldy     _i
	lda     _craft_bullet_y,y
	cmp     #$0A
	bcs     L04E1
;
; craft_bullet_y[i] = 255;
;
L04E2:	ldy     _i
	lda     #$FF
	sta     _craft_bullet_y,y
;
; continue;
;
	jmp     L048E
;
; bullet_grid_pos_y = (craft_bullet_y[i] + (scr&15))>>4;
;
L04E1:	ldy     _i
	ldx     #$00
	lda     _craft_bullet_y,y
	sta     ptr1
	lda     _scr
	and     #$0F
	clc
	adc     ptr1
	bcc     L0EC6
	inx
L0EC6:	jsr     shrax4
	sta     _temp1
;
; bullet_grid_pos_x = craft_bullet_x[i]>>4;
;
	ldy     _i
	ldx     #$00
	lda     _craft_bullet_x,y
	jsr     asrax4
	sta     _temp2
;
; has_collision = isCellBulletFree(bullet_grid_pos_x, bullet_grid_pos_y) == FALSE;
;
	jsr     pusha
	lda     _temp1
	jsr     _isCellBulletFree
	cmp     #$00
	jsr     booleq
	sta     _temp4
;
; if(i<CRAFT_BULLET_COUNT)
;
	lda     _i
	cmp     #$08
	jcs     L04FE
;
; if(has_collision){
;
	lda     _temp4
	jeq     L0500
;
; if(wall_hit_hp[i&1] == 0 ||(wall_hit_x[i&1]&15) != bullet_grid_pos_x || (wall_hit_y[i&1]&15) != bullet_grid_pos_y)
;
	lda     _i
	and     #$01
	sta     ptr1
	txa
	clc
	adc     #>(_wall_hit_hp)
	sta     ptr1+1
	ldy     #<(_wall_hit_hp)
	lda     (ptr1),y
	beq     L0503
	lda     _i
	and     #$01
	sta     ptr1
	txa
	clc
	adc     #>(_wall_hit_x)
	sta     ptr1+1
	ldy     #<(_wall_hit_x)
	lda     (ptr1),y
	and     #$0F
	cmp     _temp2
	bne     L0503
	lda     _i
	and     #$01
	sta     ptr1
	txa
	clc
	adc     #>(_wall_hit_y)
	sta     ptr1+1
	ldy     #<(_wall_hit_y)
	lda     (ptr1),y
	and     #$0F
	cmp     _temp1
	beq     L0502
;
; wall_hit_x[i&1] = (wall_hit_x[i&1]&0xF0) | bullet_grid_pos_x;
;
L0503:	lda     _i
	and     #$01
	clc
	adc     #<(_wall_hit_x)
	sta     sreg
	txa
	adc     #>(_wall_hit_x)
	sta     sreg+1
	lda     _i
	and     #$01
	sta     ptr1
	txa
	clc
	adc     #>(_wall_hit_x)
	sta     ptr1+1
	ldy     #<(_wall_hit_x)
	lda     (ptr1),y
	and     #$F0
	sta     ptr1
	lda     _temp2
	ora     ptr1
	ldy     #$00
	sta     (sreg),y
;
; wall_hit_y[i&1] = (wall_hit_y[i&1]&0xF0) | bullet_grid_pos_y;
;
	lda     _i
	and     #$01
	clc
	adc     #<(_wall_hit_y)
	sta     sreg
	txa
	adc     #>(_wall_hit_y)
	sta     sreg+1
	lda     _i
	and     #$01
	sta     ptr1
	txa
	clc
	adc     #>(_wall_hit_y)
	sta     ptr1+1
	ldy     #<(_wall_hit_y)
	lda     (ptr1),y
	and     #$F0
	sta     ptr1
	lda     _temp1
	ora     ptr1
	ldy     #$00
	sta     (sreg),y
;
; wall_hit_hp[i&1] = 5;
;
	lda     _i
	and     #$01
	clc
	adc     #<(_wall_hit_hp)
	sta     ptr1
	txa
	adc     #>(_wall_hit_hp)
	sta     ptr1+1
	lda     #$05
	sta     (ptr1),y
;
; wall_hit_hp[i&1]--;
;
L0502:	lda     _i
	and     #$01
	clc
	adc     #<(_wall_hit_hp)
	tay
	txa
	adc     #>(_wall_hit_hp)
	tax
	tya
	sta     sreg
	stx     sreg+1
	sta     ptr1
	stx     ptr1+1
	ldy     #$00
	lda     (ptr1),y
	sec
	sbc     #$01
	sta     (sreg),y
;
; if(wall_hit_hp[i&1] == 0 && bullet_grid_pos_x != 0 && bullet_grid_pos_x != 15){
;
	lda     _i
	and     #$01
	sta     ptr1
	tya
	clc
	adc     #>(_wall_hit_hp)
	sta     ptr1+1
	ldy     #<(_wall_hit_hp)
	lda     (ptr1),y
	jne     L0519
	lda     _temp2
	jeq     L0519
	lda     _temp2
	cmp     #$0F
	jeq     L0519
;
; bullet_blocked[bullet_grid_pos_y] ^= (1<<bullet_grid_pos_x);
;
	ldx     #$00
	lda     _temp1
	asl     a
	bcc     L0EC3
	inx
	clc
L0EC3:	adc     #<(_bullet_blocked)
	tay
	txa
	adc     #>(_bullet_blocked)
	tax
	tya
	jsr     pushax
	sta     ptr1
	stx     ptr1+1
	ldy     #$01
	lda     (ptr1),y
	tax
	dey
	lda     (ptr1),y
	jsr     pushax
	lda     #$01
	jsr     pusha0
	lda     _temp2
	jsr     tosaslax
	jsr     tosxorax
	ldy     #$00
	jsr     staxspidx
;
; blocked[bullet_grid_pos_y] ^= (1<<bullet_grid_pos_x);
;
	ldx     #$00
	lda     _temp1
	asl     a
	bcc     L0EC4
	inx
	clc
L0EC4:	adc     #<(_blocked)
	tay
	txa
	adc     #>(_blocked)
	tax
	tya
	jsr     pushax
	sta     ptr1
	stx     ptr1+1
	ldy     #$01
	lda     (ptr1),y
	tax
	dey
	lda     (ptr1),y
	jsr     pushax
	lda     #$01
	jsr     pusha0
	lda     _temp2
	jsr     tosaslax
	jsr     tosxorax
	ldy     #$00
	jsr     staxspidx
;
; row_index_on_ns = last_row_index;
;
	lda     _last_row_index
	sta     _temp0
;
; if(row_index_on_ns&1) row_index_on_ns--;
;
	and     #$01
	beq     L0528
	lda     _temp0
	sec
	sbc     #$01
	sta     _temp0
;
; row_index_on_ns +=(bullet_grid_pos_y<<1);
;
L0528:	lda     _temp1
	asl     a
	clc
	adc     _temp0
	sta     _temp0
;
; if(row_index_on_ns>=60) row_index_on_ns-=60;
;
	cmp     #$3C
	bcc     L052E
	lda     _temp0
	sec
	sbc     #$3C
	sta     _temp0
;
; if(row_index_on_ns<30){
;
L052E:	lda     _temp0
	cmp     #$1E
	bcs     L0532
;
; adr = NAMETABLE_A+(row_index_on_ns<<5);
;
	ldx     #$00
	lda     _temp0
	jsr     aslax4
	stx     tmp1
	asl     a
	rol     tmp1
	sta     _adr
	lda     tmp1
	clc
	adc     #$20
;
; }else{
;
	jmp     L0EC8
;
; row_index_on_ns-=30;
;
L0532:	lda     _temp0
	sec
	sbc     #$1E
	sta     _temp0
;
; adr = NAMETABLE_C+(row_index_on_ns<<5);
;
	ldx     #$00
	lda     _temp0
	jsr     aslax4
	stx     tmp1
	asl     a
	rol     tmp1
	sta     _adr
	lda     tmp1
	clc
	adc     #$28
L0EC8:	sta     _adr+1
;
; adr += bullet_grid_pos_x<<1;
;
	ldx     #$00
	lda     _temp2
	asl     a
	bcc     L0EC5
	inx
	clc
L0EC5:	adc     _adr
	sta     _adr
	txa
	adc     _adr+1
	sta     _adr+1
;
; update_list[0]=MSB(adr)|NT_UPD_HORZ;
;
	ora     #$40
	sta     _update_list
;
; update_list[1]=LSB(adr);
;
	lda     _adr
	sta     _update_list+1
;
; update_list[2] = 2;
;
	lda     #$02
	sta     _update_list+2
;
; update_list[5]=NT_UPD_EOF;
;
	lda     #$FF
	sta     _update_list+5
;
; adr += 32;
;
	lda     #$20
	clc
	adc     _adr
	sta     _adr
	bcc     L0553
	inc     _adr+1
;
; update_list[5]=MSB(adr)|NT_UPD_HORZ;
;
L0553:	lda     _adr+1
	ora     #$40
	sta     _update_list+5
;
; update_list[6]=LSB(adr);
;
	lda     _adr
	sta     _update_list+6
;
; update_list[7] = 2;
;
	lda     #$02
	sta     _update_list+7
;
; update_list[10]=NT_UPD_EOF;
;
	lda     #$FF
	sta     _update_list+10
;
; collision_edge_data = 0;
;
	sty     _temp5
;
; if(bullet_grid_pos_y)
;
	lda     _temp1
	beq     L0568
;
; collision_edge_data |= (!isCellBulletFree(bullet_grid_pos_x, bullet_grid_pos_y-1) || (((wall_hit_x[i&1])>>4) == bullet_grid_pos_x && ((wall_hit_y[i&1])>>4) == bullet_grid_pos_y-1));
;
	lda     _temp5
	jsr     pusha0
	lda     _temp2
	jsr     pusha
	lda     _temp1
	sec
	sbc     #$01
	jsr     _isCellBulletFree
	tax
	beq     L056C
	lda     _i
	and     #$01
	sta     ptr1
	lda     #$00
	clc
	adc     #>(_wall_hit_x)
	sta     ptr1+1
	ldy     #<(_wall_hit_x)
	ldx     #$00
	lda     (ptr1),y
	jsr     asrax4
	cpx     #$00
	bne     L0EB9
	cmp     _temp2
	bne     L0EB9
	lda     _i
	and     #$01
	sta     ptr1
	txa
	clc
	adc     #>(_wall_hit_y)
	sta     ptr1+1
	ldy     #<(_wall_hit_y)
	lda     (ptr1),y
	jsr     asrax4
	sta     ptr1
	stx     ptr1+1
	ldx     #$00
	lda     _temp1
	sec
	sbc     #$01
	bcs     L0578
	dex
L0578:	cpx     ptr1+1
	bne     L0EB9
	cmp     ptr1
	beq     L056C
L0EB9:	lda     #$00
	jmp     L057A
L056C:	lda     #$01
L057A:	jsr     tosora0
	sta     _temp5
;
; if(bullet_grid_pos_x)
;
L0568:	lda     _temp2
	beq     L057B
;
; collision_edge_data |= (!isCellBulletFree(bullet_grid_pos_x-1, bullet_grid_pos_y) || (((wall_hit_x[i&1])>>4) == bullet_grid_pos_x-1 && ((wall_hit_y[i&1])>>4) == bullet_grid_pos_y))<<1;
;
	lda     _temp5
	jsr     pusha0
	lda     _temp2
	sec
	sbc     #$01
	jsr     pusha
	lda     _temp1
	jsr     _isCellBulletFree
	tax
	beq     L057F
	lda     _i
	and     #$01
	sta     ptr1
	lda     #$00
	clc
	adc     #>(_wall_hit_x)
	sta     ptr1+1
	ldy     #<(_wall_hit_x)
	ldx     #$00
	lda     (ptr1),y
	jsr     asrax4
	sta     ptr1
	stx     ptr1+1
	ldx     #$00
	lda     _temp2
	sec
	sbc     #$01
	bcs     L0587
	dex
L0587:	cpx     ptr1+1
	bne     L0EBA
	cmp     ptr1
	bne     L0EBA
	lda     _i
	and     #$01
	sta     ptr1
	lda     #$00
	clc
	adc     #>(_wall_hit_y)
	sta     ptr1+1
	ldy     #<(_wall_hit_y)
	ldx     #$00
	lda     (ptr1),y
	jsr     asrax4
	cpx     #$00
	bne     L0EBA
	cmp     _temp1
	beq     L057F
L0EBA:	ldx     #$00
	txa
	jmp     L058D
L057F:	lda     #$01
L058D:	asl     a
	bcc     L0EAE
	inx
L0EAE:	jsr     tosorax
	sta     _temp5
;
; if(bullet_grid_pos_y<14)
;
L057B:	lda     _temp1
	cmp     #$0E
	bcs     L058E
;
; collision_edge_data |= (!isCellBulletFree(bullet_grid_pos_x, bullet_grid_pos_y+1) || (((wall_hit_x[i&1])>>4) == bullet_grid_pos_x && ((wall_hit_y[i&1])>>4) == bullet_grid_pos_y+1))<<2;
;
	lda     _temp5
	jsr     pusha0
	lda     _temp2
	jsr     pusha
	lda     _temp1
	clc
	adc     #$01
	jsr     _isCellBulletFree
	tax
	beq     L0592
	lda     _i
	and     #$01
	sta     ptr1
	lda     #$00
	clc
	adc     #>(_wall_hit_x)
	sta     ptr1+1
	ldy     #<(_wall_hit_x)
	ldx     #$00
	lda     (ptr1),y
	jsr     asrax4
	cpx     #$00
	bne     L0EBB
	cmp     _temp2
	bne     L0EBB
	lda     _i
	and     #$01
	sta     ptr1
	txa
	clc
	adc     #>(_wall_hit_y)
	sta     ptr1+1
	ldy     #<(_wall_hit_y)
	lda     (ptr1),y
	jsr     asrax4
	sta     ptr1
	stx     ptr1+1
	ldx     #$00
	lda     _temp1
	clc
	adc     #$01
	bcc     L059E
	inx
L059E:	cpx     ptr1+1
	bne     L0EBB
	cmp     ptr1
	beq     L0592
L0EBB:	ldx     #$00
	txa
	jmp     L05A0
L0592:	ldx     #$00
	lda     #$01
L05A0:	jsr     aslax2
	jsr     tosorax
	sta     _temp5
;
; if(bullet_grid_pos_x<15)
;
L058E:	lda     _temp2
	cmp     #$0F
	bcs     L05A1
;
; collision_edge_data |= (!isCellBulletFree(bullet_grid_pos_x+1, bullet_grid_pos_y) || (((wall_hit_x[i&1])>>4) == bullet_grid_pos_x+1 && ((wall_hit_y[i&1])>>4) == bullet_grid_pos_y))<<3;
;
	lda     _temp5
	jsr     pusha0
	lda     _temp2
	clc
	adc     #$01
	jsr     pusha
	lda     _temp1
	jsr     _isCellBulletFree
	tax
	beq     L05A5
	lda     _i
	and     #$01
	sta     ptr1
	lda     #$00
	clc
	adc     #>(_wall_hit_x)
	sta     ptr1+1
	ldy     #<(_wall_hit_x)
	ldx     #$00
	lda     (ptr1),y
	jsr     asrax4
	sta     ptr1
	stx     ptr1+1
	ldx     #$00
	lda     _temp2
	clc
	adc     #$01
	bcc     L05AD
	inx
L05AD:	cpx     ptr1+1
	bne     L0EBC
	cmp     ptr1
	bne     L0EBC
	lda     _i
	and     #$01
	sta     ptr1
	lda     #$00
	clc
	adc     #>(_wall_hit_y)
	sta     ptr1+1
	ldy     #<(_wall_hit_y)
	ldx     #$00
	lda     (ptr1),y
	jsr     asrax4
	cpx     #$00
	bne     L0EBC
	cmp     _temp1
	beq     L05A5
L0EBC:	ldx     #$00
	txa
	jmp     L05B3
L05A5:	lda     #$01
L05B3:	jsr     aslax3
	jsr     tosorax
	sta     _temp5
;
; if((collision_edge_data & 3) == 3)
;
L05A1:	lda     _temp5
	and     #$03
	cmp     #$03
	bne     L05B4
;
; update_list[3] = 0xB0;
;
	lda     #$B0
;
; else if(collision_edge_data & 1)
;
	jmp     L0EBF
L05B4:	lda     _temp5
	and     #$01
	beq     L05BC
;
; update_list[3] = 0xB4;
;
	lda     #$B4
;
; else if(collision_edge_data & 2)
;
	jmp     L0EBF
L05BC:	lda     _temp5
	and     #$02
	beq     L0EBF
;
; update_list[3] = 0xB2;
;
	lda     #$B2
;
; update_list[3] = 0;
;
L0EBF:	sta     _update_list+3
;
; if((collision_edge_data & 9) == 9)
;
	lda     _temp5
	and     #$09
	cmp     #$09
	bne     L05CB
;
; update_list[4] = 0xB1;
;
	lda     #$B1
;
; else if(collision_edge_data & 1)
;
	jmp     L0EC0
L05CB:	lda     _temp5
	and     #$01
	beq     L05D3
;
; update_list[4] = 0xB5;
;
	lda     #$B5
;
; else if(collision_edge_data & 8)
;
	jmp     L0EC0
L05D3:	lda     _temp5
	and     #$08
	beq     L0EC0
;
; update_list[4] = 0xB3;
;
	lda     #$B3
;
; update_list[4] = 0;
;
L0EC0:	sta     _update_list+4
;
; if((collision_edge_data & 6) == 6)
;
	lda     _temp5
	and     #$06
	cmp     #$06
	bne     L05E2
;
; update_list[8] = 0xC0;
;
	lda     #$C0
;
; else if(collision_edge_data & 4)
;
	jmp     L0EC1
L05E2:	lda     _temp5
	and     #$04
	beq     L05EA
;
; update_list[8] = 0xC4;
;
	lda     #$C4
;
; else if(collision_edge_data & 2)
;
	jmp     L0EC1
L05EA:	lda     _temp5
	and     #$02
	beq     L0EC1
;
; update_list[8] = 0xC2;
;
	lda     #$C2
;
; update_list[8] = 0;
;
L0EC1:	sta     _update_list+8
;
; if((collision_edge_data & 12) == 12)
;
	lda     _temp5
	and     #$0C
	cmp     #$0C
	bne     L05F9
;
; update_list[9] = 0xC1;
;
	lda     #$C1
;
; else if(collision_edge_data & 4)
;
	jmp     L0EC2
L05F9:	lda     _temp5
	and     #$04
	beq     L0601
;
; update_list[9] = 0xC5;
;
	lda     #$C5
;
; else if(collision_edge_data & 8)
;
	jmp     L0EC2
L0601:	lda     _temp5
	and     #$08
	beq     L0EC2
;
; update_list[9] = 0xC3;
;
	lda     #$C3
;
; update_list[9] = 0;
;
L0EC2:	sta     _update_list+9
;
; wall_hit_x[i&1] <<= 4;
;
	lda     _i
	and     #$01
	clc
	adc     #<(_wall_hit_x)
	sta     ptr1
	lda     #$00
	adc     #>(_wall_hit_x)
	sta     ptr1+1
	ldy     #$00
	lda     (ptr1),y
	asl     a
	asl     a
	asl     a
	asl     a
	sta     (ptr1),y
;
; wall_hit_y[i&1] <<= 4;
;
	lda     _i
	and     #$01
	clc
	adc     #<(_wall_hit_y)
	sta     ptr1
	tya
	adc     #>(_wall_hit_y)
	sta     ptr1+1
	lda     (ptr1),y
	asl     a
	asl     a
	asl     a
	asl     a
	sta     (ptr1),y
;
; craft_bullet_y[i] = 255;
;
L0519:	ldy     _i
	lda     #$FF
	sta     _craft_bullet_y,y
;
; continue;
;
	jmp     L048E
;
; for(j=2; j<6; j++){
;
L0500:	lda     #$02
L0EC9:	sta     _j
	cmp     #$06
	jcs     L048E
;
; if(craft_types[j] != 255){
;
	ldy     _j
	lda     _craft_types,y
	cmp     #$FF
	jeq     L061C
;
; if(craft_bullet_x[i] > craft_x[j]-6 && craft_bullet_x[i] < craft_x[j]+6 && craft_bullet_y[i] > craft_y[j]-6 && craft_bullet_y[i] < craft_y[j]+6){
;
	ldy     _i
	lda     _craft_bullet_x,y
	jsr     pusha0
	ldy     _j
	lda     _craft_x,y
	sec
	sbc     #$06
	bcs     L062C
	ldx     #$FF
L062C:	jsr     tosicmp
	bcc     L061C
	beq     L061C
	ldy     _i
	lda     _craft_bullet_x,y
	jsr     pusha0
	ldy     _j
	lda     _craft_x,y
	clc
	adc     #$06
	bcc     L0632
	ldx     #$01
L0632:	jsr     tosicmp
	bcs     L061C
	ldy     _i
	lda     _craft_bullet_y,y
	jsr     pusha0
	ldy     _j
	lda     _craft_y,y
	sec
	sbc     #$06
	bcs     L0637
	ldx     #$FF
L0637:	jsr     tosicmp
	bcc     L061C
	beq     L061C
	ldy     _i
	lda     _craft_bullet_y,y
	jsr     pusha0
	ldy     _j
	lda     _craft_y,y
	clc
	adc     #$06
	bcc     L063C
	ldx     #$01
L063C:	jsr     tosicmp
	bcs     L061C
;
; damage_craft(j, 1);
;
	jsr     decsp2
	lda     _j
	ldy     #$01
	sta     (sp),y
	tya
	dey
	sta     (sp),y
	jsr     _damage_craft
;
; craft_bullet_y[i] = 255;
;
	ldy     _i
	lda     #$FF
	sta     _craft_bullet_y,y
;
; break;
;
	jmp     L048E
;
; for(j=2; j<6; j++){
;
L061C:	lda     _j
	clc
	adc     #$01
	jmp     L0EC9
;
; if(has_collision){
;
L04FE:	lda     _temp4
	beq     L0646
;
; craft_bullet_y[i] = 255;
;
	ldy     _i
	lda     #$FF
	sta     _craft_bullet_y,y
;
; continue;
;
	jmp     L048E
;
; for(j=0; j<2; j++){
;
L0646:	sta     _j
	cmp     #$02
	jcs     L048E
;
; if(craft_lives[j] > 0){
;
	ldy     _j
	lda     _craft_lives,y
	jeq     L064E
;
; if(craft_bullet_x[i] > craft_x[j]-6 && craft_bullet_x[i] < craft_x[j]+6 && craft_bullet_y[i] > craft_y[j]-6 && craft_bullet_y[i] < craft_y[j]+6){
;
	ldy     _i
	lda     _craft_bullet_x,y
	jsr     pusha0
	ldy     _j
	lda     _craft_x,y
	sec
	sbc     #$06
	bcs     L065E
	ldx     #$FF
L065E:	jsr     tosicmp
	bcc     L064E
	beq     L064E
	ldy     _i
	lda     _craft_bullet_x,y
	jsr     pusha0
	ldy     _j
	lda     _craft_x,y
	clc
	adc     #$06
	bcc     L0664
	ldx     #$01
L0664:	jsr     tosicmp
	bcs     L064E
	ldy     _i
	lda     _craft_bullet_y,y
	jsr     pusha0
	ldy     _j
	lda     _craft_y,y
	sec
	sbc     #$06
	bcs     L0669
	ldx     #$FF
L0669:	jsr     tosicmp
	bcc     L064E
	beq     L064E
	ldy     _i
	lda     _craft_bullet_y,y
	jsr     pusha0
	ldy     _j
	lda     _craft_y,y
	clc
	adc     #$06
	bcc     L066E
	ldx     #$01
L066E:	jsr     tosicmp
	bcs     L064E
;
; damage_craft(j, 1);
;
	jsr     decsp2
	lda     _j
	ldy     #$01
	sta     (sp),y
	tya
	dey
	sta     (sp),y
	jsr     _damage_craft
;
; craft_bullet_y[i] = 255;
;
	ldy     _i
	lda     #$FF
	sta     _craft_bullet_y,y
;
; for(j=0; j<2; j++){
;
L064E:	lda     _j
	clc
	adc     #$01
	jmp     L0646
;
; for(i=0; i<ENEMY_BULLET_COUNT; ++i){
;
L048E:	inc     _i
	jmp     L048C

.endproc

; ---------------------------------------------------------------
; void __near__ tick_crafts (void)
; ---------------------------------------------------------------

.segment	"CODE"

.proc	_tick_crafts: near

.segment	"CODE"

;
; if(pad_poll(0)&PAD_B) TIMER_ENABLE(0);
;
	lda     #$00
	jsr     _pad_poll
	and     #$02
	beq     L0678
	lda     $00FB
	ora     #$01
	sta     $00FB
;
; TIMER_BEGIN(0);
;
L0678:	lda     $00FB
	and     #$01
	beq     L067F
	lda     $00FA
	ora     #$01
	sta     $00FA
	lda     #$00
	sta     $00FF
;
; for(i=0;i<2;++i){
;
L067F:	sta     _i
L068A:	lda     _i
	cmp     #$02
	jcs     L068B
;
; if(!craft_lives[i]) continue;
;
	ldy     _i
	lda     _craft_lives,y
	jeq     L068C
;
; if(craft_hps[i] == 0)
;
	ldy     _i
	lda     _craft_hps,y
	bne     L0696
;
; craft_hps[i] = 8;
;
	ldy     _i
	lda     #$08
	sta     _craft_hps,y
;
; craft_lives[i]--;
;
	lda     #<(_craft_lives)
	ldx     #>(_craft_lives)
	clc
	adc     _i
	bcc     L06A0
	inx
L06A0:	sta     sreg
	stx     sreg+1
	sta     ptr1
	stx     ptr1+1
	ldy     #$00
	lda     (ptr1),y
	sec
	sbc     #$01
	sta     (sreg),y
;
; pad=pad_poll(i);
;
L0696:	lda     _i
	jsr     _pad_poll
	sta     _temp0
;
; sprite_look_dirs[i] = 0;
;
	ldy     _i
	lda     #$00
	sta     _sprite_look_dirs,y
;
; move_amount = 0;
;
	sta     _temp4
;
; if(pad&PAD_LEFT){
;
	lda     _temp0
	and     #$40
	beq     L06AA
;
; move_amount++;
;
	lda     _temp4
	clc
	adc     #$01
	sta     _temp4
;
; if((pad&(PAD_UP|PAD_DOWN)) && sprite_dirs[i] != DIR_LEFT && sprite_dirs[i] != DIR_RIGHT){
;
	lda     _temp0
	and     #$30
	beq     L06AD
	ldy     _i
	lda     _sprite_dirs,y
	cmp     #$04
	beq     L06AD
	ldy     _i
	lda     _sprite_dirs,y
	cmp     #$08
	beq     L06AD
;
; sprite_look_dirs[i] = DIR_LEFT;
;
	ldy     _i
	lda     #$04
	sta     _sprite_look_dirs,y
;
; }else{
;
	jmp     L06D2
;
; sprite_dirs[i] = DIR_LEFT;
;
L06AD:	ldy     _i
	lda     #$04
;
; } else if(pad&PAD_RIGHT){
;
	jmp     L0ED5
L06AA:	lda     _temp0
	and     #$80
	beq     L06D2
;
; move_amount++;
;
	lda     _temp4
	clc
	adc     #$01
	sta     _temp4
;
; if((pad&(PAD_UP|PAD_DOWN)) && sprite_dirs[i] != DIR_LEFT && sprite_dirs[i] != DIR_RIGHT){
;
	lda     _temp0
	and     #$30
	beq     L06C4
	ldy     _i
	lda     _sprite_dirs,y
	cmp     #$04
	beq     L06C4
	ldy     _i
	lda     _sprite_dirs,y
	cmp     #$08
	beq     L06C4
;
; sprite_look_dirs[i] = DIR_RIGHT;
;
	ldy     _i
	lda     #$08
	sta     _sprite_look_dirs,y
;
; }else{
;
	jmp     L06D2
;
; sprite_dirs[i] = DIR_RIGHT;
;
L06C4:	ldy     _i
	lda     #$08
L0ED5:	sta     _sprite_dirs,y
;
; if(pad&PAD_UP){
;
L06D2:	lda     _temp0
	and     #$10
	beq     L06D7
;
; move_amount++;
;
	lda     _temp4
	clc
	adc     #$01
	sta     _temp4
;
; if((pad&(PAD_LEFT|PAD_RIGHT)) && sprite_dirs[i] != DIR_UP && sprite_dirs[i] != DIR_DOWN){
;
	lda     _temp0
	and     #$C0
	beq     L06DA
	ldy     _i
	lda     _sprite_dirs,y
	cmp     #$01
	beq     L06DA
	ldy     _i
	lda     _sprite_dirs,y
	cmp     #$02
	beq     L06DA
;
; sprite_look_dirs[i] = DIR_LEFT;
;
	ldy     _i
	lda     #$04
	sta     _sprite_look_dirs,y
;
; }else{
;
	jmp     L06FF
;
; sprite_dirs[i] = DIR_UP;
;
L06DA:	ldy     _i
	lda     #$01
;
; } else if(pad&PAD_DOWN){
;
	jmp     L0ED6
L06D7:	lda     _temp0
	and     #$20
	beq     L06FF
;
; move_amount++;
;
	lda     _temp4
	clc
	adc     #$01
	sta     _temp4
;
; if((pad&(PAD_LEFT|PAD_RIGHT)) && sprite_dirs[i] != DIR_UP && sprite_dirs[i] != DIR_DOWN){
;
	lda     _temp0
	and     #$C0
	beq     L06F1
	ldy     _i
	lda     _sprite_dirs,y
	cmp     #$01
	beq     L06F1
	ldy     _i
	lda     _sprite_dirs,y
	cmp     #$02
	beq     L06F1
;
; sprite_look_dirs[i] = DIR_RIGHT;
;
	ldy     _i
	lda     #$08
	sta     _sprite_look_dirs,y
;
; }else{
;
	jmp     L06FF
;
; sprite_dirs[i] = DIR_DOWN;
;
L06F1:	ldy     _i
	lda     #$02
L0ED6:	sta     _sprite_dirs,y
;
; if(move_amount){
;
L06FF:	lda     _temp4
	jeq     L0704
;
; new_x = craft_x[i];
;
	ldy     _i
	lda     _craft_x,y
	sta     _temp5
;
; new_y = craft_y[i];
;
	ldy     _i
	lda     _craft_y,y
	sta     _temp6
;
; if(move_amount == 1 || (frame&3) != 0){
;
	lda     _temp4
	cmp     #$01
	beq     L070F
	lda     _frame
	and     #$03
	jeq     L0737
;
; if(pad&PAD_LEFT){
;
L070F:	lda     _temp0
	and     #$40
	jeq     L0713
;
; int_temp0 = (((unsigned int)1)<<(new_x-3>>4));
;
	lda     #$01
	jsr     pusha0
	lda     _temp5
	sec
	sbc     #$03
	bcs     L071A
	ldx     #$FF
L071A:	jsr     shrax4
	jsr     tosshlax
	sta     _int_temp0
	stx     _int_temp0+1
;
; collision_temp_2 = new_y + (scr&15);
;
	ldx     #$00
	lda     _scr
	and     #$0F
	clc
	adc     _temp6
	sta     _temp2
;
; if(!((blocked[(collision_temp_2+2)>>4] & int_temp0) || (blocked[(collision_temp_2-2)>>4]& int_temp0))){
;
	clc
	adc     #$02
	bcc     L0724
	inx
L0724:	jsr     shrax4
	stx     tmp1
	asl     a
	rol     tmp1
	clc
	adc     #<(_blocked)
	sta     ptr1
	lda     tmp1
	adc     #>(_blocked)
	sta     ptr1+1
	ldy     #$01
	lda     (ptr1),y
	tax
	dey
	lda     (ptr1),y
	sta     ptr1
	stx     ptr1+1
	lda     _int_temp0
	and     ptr1
	pha
	lda     _int_temp0+1
	and     ptr1+1
	sta     tmp1
	pla
	ora     tmp1
	bne     L0720
	tax
	lda     _temp2
	sec
	sbc     #$02
	bcs     L0728
	dex
L0728:	jsr     shrax4
	stx     tmp1
	asl     a
	rol     tmp1
	clc
	adc     #<(_blocked)
	sta     ptr1
	lda     tmp1
	adc     #>(_blocked)
	sta     ptr1+1
	iny
	lda     (ptr1),y
	tax
	dey
	lda     (ptr1),y
	sta     ptr1
	stx     ptr1+1
	lda     _int_temp0
	and     ptr1
	pha
	lda     _int_temp0+1
	and     ptr1+1
	sta     tmp1
	pla
	ora     tmp1
	beq     L0729
L0720:	lda     #$01
L0729:	jsr     bnega
	jeq     L0737
;
; new_x--;
;
	lda     _temp5
	pha
	sec
	sbc     #$01
;
; } else if(pad&PAD_RIGHT) {
;
	jmp     L0EDE
L0713:	lda     _temp0
	and     #$80
	jeq     L0737
;
; int_temp0 = (((unsigned int)1)<<(new_x+3>>4));
;
	lda     #$01
	jsr     pusha0
	lda     _temp5
	clc
	adc     #$03
	bcc     L0733
	ldx     #$01
L0733:	jsr     shrax4
	jsr     tosshlax
	sta     _int_temp0
	stx     _int_temp0+1
;
; collision_temp_2 = new_y + (scr&15);
;
	ldx     #$00
	lda     _scr
	and     #$0F
	clc
	adc     _temp6
	sta     _temp2
;
; if(!((blocked[(collision_temp_2+2)>>4] & int_temp0) || (blocked[(collision_temp_2-2)>>4]& int_temp0))){
;
	clc
	adc     #$02
	bcc     L073D
	inx
L073D:	jsr     shrax4
	stx     tmp1
	asl     a
	rol     tmp1
	clc
	adc     #<(_blocked)
	sta     ptr1
	lda     tmp1
	adc     #>(_blocked)
	sta     ptr1+1
	ldy     #$01
	lda     (ptr1),y
	tax
	dey
	lda     (ptr1),y
	sta     ptr1
	stx     ptr1+1
	lda     _int_temp0
	and     ptr1
	pha
	lda     _int_temp0+1
	and     ptr1+1
	sta     tmp1
	pla
	ora     tmp1
	bne     L0739
	tax
	lda     _temp2
	sec
	sbc     #$02
	bcs     L0741
	dex
L0741:	jsr     shrax4
	stx     tmp1
	asl     a
	rol     tmp1
	clc
	adc     #<(_blocked)
	sta     ptr1
	lda     tmp1
	adc     #>(_blocked)
	sta     ptr1+1
	iny
	lda     (ptr1),y
	tax
	dey
	lda     (ptr1),y
	sta     ptr1
	stx     ptr1+1
	lda     _int_temp0
	and     ptr1
	pha
	lda     _int_temp0+1
	and     ptr1+1
	sta     tmp1
	pla
	ora     tmp1
	beq     L0742
L0739:	lda     #$01
L0742:	jsr     bnega
	beq     L0737
;
; new_x++;
;
	lda     _temp5
	pha
	clc
	adc     #$01
L0EDE:	sta     _temp5
	pla
;
; if(move_amount == 1 || (frame&3) != 1){
;
L0737:	lda     _temp4
	cmp     #$01
	beq     L0745
	lda     _frame
	and     #$03
	cmp     #$01
	jeq     L075F
;
; if(pad&PAD_UP){
;
L0745:	lda     _temp0
	and     #$10
	jeq     L0749
;
; if(!((blocked[new_y-3+(scr&15)>>4] & ((1<<((new_x-2)>>4))|(1<<((new_x+2)>>4)))))){
;
	ldx     #$00
	lda     _temp6
	sec
	sbc     #$03
	bcs     L0750
	dex
L0750:	sta     ptr1
	stx     ptr1+1
	lda     _scr
	and     #$0F
	clc
	adc     ptr1
	ldx     ptr1+1
	bcc     L0EDC
	inx
L0EDC:	jsr     shrax4
	stx     tmp1
	asl     a
	rol     tmp1
	clc
	adc     #<(_blocked)
	sta     ptr1
	lda     tmp1
	adc     #>(_blocked)
	sta     ptr1+1
	ldy     #$01
	lda     (ptr1),y
	tax
	dey
	lda     (ptr1),y
	jsr     pushax
	lda     #$01
	jsr     pusha0
	lda     _temp5
	sec
	sbc     #$02
	bcs     L0756
	ldx     #$FF
L0756:	jsr     shrax4
	jsr     tosaslax
	jsr     pushax
	lda     #$01
	jsr     pusha0
	lda     _temp5
	clc
	adc     #$02
	bcc     L075A
	ldx     #$01
L075A:	jsr     shrax4
	jsr     tosaslax
	jsr     tosorax
	jsr     tosandax
	stx     tmp1
	ora     tmp1
	jne     L075F
;
; new_y--;
;
	lda     _temp6
	pha
	sec
	sbc     #$01
;
; } else if(pad&PAD_DOWN) {
;
	jmp     L0EDF
L0749:	lda     _temp0
	and     #$20
	jeq     L075F
;
; if(!((blocked[new_y+3+(scr&15)>>4] & ((1<<((new_x-2)>>4))|(1<<((new_x+2)>>4)))))){
;
	ldx     #$00
	lda     _temp6
	clc
	adc     #$03
	bcc     L0764
	inx
L0764:	sta     ptr1
	stx     ptr1+1
	lda     _scr
	and     #$0F
	clc
	adc     ptr1
	ldx     ptr1+1
	bcc     L0EDD
	inx
L0EDD:	jsr     shrax4
	stx     tmp1
	asl     a
	rol     tmp1
	clc
	adc     #<(_blocked)
	sta     ptr1
	lda     tmp1
	adc     #>(_blocked)
	sta     ptr1+1
	ldy     #$01
	lda     (ptr1),y
	tax
	dey
	lda     (ptr1),y
	jsr     pushax
	lda     #$01
	jsr     pusha0
	lda     _temp5
	sec
	sbc     #$02
	bcs     L076A
	ldx     #$FF
L076A:	jsr     shrax4
	jsr     tosaslax
	jsr     pushax
	lda     #$01
	jsr     pusha0
	lda     _temp5
	clc
	adc     #$02
	bcc     L076E
	ldx     #$01
L076E:	jsr     shrax4
	jsr     tosaslax
	jsr     tosorax
	jsr     tosandax
	stx     tmp1
	ora     tmp1
	bne     L075F
;
; new_y++;
;
	lda     _temp6
	pha
	clc
	adc     #$01
L0EDF:	sta     _temp6
	pla
;
; if(new_y >= MAX_Y) new_y = MAX_Y;
;
L075F:	lda     _temp6
	cmp     #$DD
	bcc     L0770
	lda     #$DD
	sta     _temp6
;
; craft_x[i] = new_x;
;
L0770:	ldy     _i
	lda     _temp5
	sta     _craft_x,y
;
; craft_y[i] = new_y;
;
	ldy     _i
	lda     _temp6
	sta     _craft_y,y
;
; if(craft_bullet_timers[i] == 0){
;
L0704:	ldy     _i
	lda     _craft_bullet_timers,y
	jne     L077E
;
; if(pad&PAD_A){
;
	lda     _temp0
	and     #$01
	jeq     L07AA
;
; for(j=i; j < CRAFT_BULLET_COUNT; j += 2){
;
	lda     _i
L0ED9:	sta     _j
	cmp     #$08
	jcs     L07AA
;
; if(craft_bullet_y[j] != 255) continue;
;
	ldy     _j
	lda     _craft_bullet_y,y
	cmp     #$FF
	bne     L0786
;
; craft_bullet_x[j] = craft_x[i];
;
	lda     #<(_craft_bullet_x)
	ldx     #>(_craft_bullet_x)
	clc
	adc     _j
	bcc     L0793
	inx
L0793:	sta     ptr1
	stx     ptr1+1
	ldy     _i
	lda     _craft_x,y
	ldy     #$00
	sta     (ptr1),y
;
; craft_bullet_y[j] = craft_y[i];
;
	lda     #<(_craft_bullet_y)
	ldx     #>(_craft_bullet_y)
	clc
	adc     _j
	bcc     L0799
	inx
L0799:	sta     ptr1
	stx     ptr1+1
	ldy     _i
	lda     _craft_y,y
	ldy     #$00
	sta     (ptr1),y
;
; craft_bullet_flag[j] = ((pad&(PAD_UP|PAD_DOWN|PAD_LEFT|PAD_RIGHT))>>4) | sprite_dirs[i];
;
	lda     #<(_craft_bullet_flag)
	ldx     #>(_craft_bullet_flag)
	clc
	adc     _j
	bcc     L079F
	inx
L079F:	sta     sreg
	stx     sreg+1
	lda     _temp0
	and     #$F0
	lsr     a
	lsr     a
	lsr     a
	lsr     a
	sta     ptr1
	ldy     _i
	lda     _sprite_dirs,y
	ora     ptr1
	ldy     #$00
	sta     (sreg),y
;
; craft_bullet_timers[i] = 16;
;
	ldy     _i
	lda     #$10
	sta     _craft_bullet_timers,y
;
; break;
;
	jmp     L07AA
;
; for(j=i; j < CRAFT_BULLET_COUNT; j += 2){
;
L0786:	lda     #$02
	clc
	adc     _j
	jmp     L0ED9
;
; --craft_bullet_timers[i];
;
L077E:	lda     #<(_craft_bullet_timers)
	ldx     #>(_craft_bullet_timers)
	clc
	adc     _i
	bcc     L07AD
	inx
L07AD:	sta     ptr1
	stx     ptr1+1
	ldy     #$00
	lda     (ptr1),y
	sec
	sbc     #$01
	sta     (ptr1),y
;
; TIMER_TICK(0);
;
L07AA:	lda     $00FB
	and     #$01
	beq     L068C
	lda     $00FF
	clc
	adc     #$01
	sta     $00FF
;
; for(i=0;i<2;++i){
;
L068C:	inc     _i
	jmp     L068A
;
; TIMER_END(0);
;
L068B:	lda     $00FB
	and     #$01
	beq     L07B4
	lda     $00FA
	and     #$FE
	sta     $00FA
	lda     $00FF
	clc
	adc     #$01
	sta     $00FF
;
; if(pad_poll(0)&PAD_B)  TIMER_DISABLE(0);
;
L07B4:	lda     #$00
	jsr     _pad_poll
	and     #$02
	beq     L07BE
	lda     $00FB
	and     #$FE
	sta     $00FB
;
; }
;
L07BE:	rts

.endproc

; ---------------------------------------------------------------
; void __near__ scroll_screen (void)
; ---------------------------------------------------------------

.segment	"CODE"

.proc	_scroll_screen: near

.segment	"CODE"

;
; if(temp0 < 150){
;
	lda     _temp0
	cmp     #$96
	bcc     L0F86
;
; }
;
	rts
;
; set_rand(rand16()^frame^craft_x[0]^craft_y[1]);
;
L0F86:	jsr     _rand16
	sta     ptr1
	stx     ptr1+1
	lda     _frame
	eor     ptr1
	sta     ptr1
	lda     #$00
	eor     ptr1+1
	sta     ptr1+1
	lda     _craft_x
	eor     ptr1
	sta     ptr1
	lda     #$00
	eor     ptr1+1
	sta     ptr1+1
	lda     _craft_y+1
	eor     ptr1
	pha
	lda     #$00
	eor     ptr1+1
	tax
	pla
	jsr     _set_rand
;
; if(enemy_spawn_scr > scroll_amount){
;
	lda     _enemy_spawn_scr
	sec
	sbc     _temp1
	bcc     L07CC
	beq     L07CC
;
; enemy_spawn_scr -= scroll_amount;
;
	lda     _temp1
	eor     #$FF
	sec
	adc     _enemy_spawn_scr
;
; }else{
;
	jmp     L0EFD
;
; enemy_spawn_scr = 0;
;
L07CC:	lda     #$00
L0EFD:	sta     _enemy_spawn_scr
;
; for(i=0;i<6;++i){
;
	lda     #$00
	sta     _i
L07D3:	lda     _i
	cmp     #$06
	bcs     L07D4
;
; craft_y[i] += scroll_amount;
;
	lda     #<(_craft_y)
	ldx     #>(_craft_y)
	clc
	adc     _i
	bcc     L07DD
	inx
L07DD:	sta     sreg
	stx     sreg+1
	sta     ptr1
	stx     ptr1+1
	ldy     #$00
	lda     (ptr1),y
	clc
	adc     _temp1
	sta     (sreg),y
;
; if(craft_y[i] >= MAX_Y+1) craft_y[i] = MAX_Y+1;
;
	ldy     _i
	lda     _craft_y,y
	cmp     #$DE
	bcc     L07D5
	ldy     _i
	lda     #$DE
	sta     _craft_y,y
;
; for(i=0;i<6;++i){
;
L07D5:	inc     _i
	jmp     L07D3
;
; for(i=0; i<ENEMY_BULLET_COUNT; ++i){
;
L07D4:	lda     #$00
	sta     _i
L07E9:	lda     _i
	cmp     #$0C
	bcs     L07EA
;
; if(craft_bullet_y[i] == 255) continue;
;
	ldy     _i
	lda     _craft_bullet_y,y
	cmp     #$FF
	beq     L07EB
;
; if(craft_bullet_y[i] > 255 - scroll_amount){
;
	ldy     _i
	lda     _craft_bullet_y,y
	jsr     pusha0
	lda     #$FF
	sec
	sbc     _temp1
	jsr     tosicmp0
	bcc     L07F5
	beq     L07F5
;
; craft_bullet_y[i] = 255;
;
	ldy     _i
	lda     #$FF
	sta     _craft_bullet_y,y
;
; }else{
;
	jmp     L07EB
;
; craft_bullet_y[i] += scroll_amount;
;
L07F5:	lda     #<(_craft_bullet_y)
	ldx     #>(_craft_bullet_y)
	clc
	adc     _i
	bcc     L0800
	inx
L0800:	sta     sreg
	stx     sreg+1
	sta     ptr1
	stx     ptr1+1
	ldy     #$00
	lda     (ptr1),y
	clc
	adc     _temp1
	sta     (sreg),y
;
; for(i=0; i<ENEMY_BULLET_COUNT; ++i){
;
L07EB:	inc     _i
	jmp     L07E9
;
; scr -= scroll_amount;
;
L07EA:	lda     _temp1
	eor     #$FF
	sec
	adc     _scr
	sta     _scr
	lda     #$FF
	adc     _scr+1
	sta     _scr+1
;
; if(scr<0) scr+=240*2;
;
	ldx     _scr+1
	cpx     #$80
	bcc     L0804
	lda     #$E0
	clc
	adc     _scr
	sta     _scr
	lda     #$01
	adc     _scr+1
	sta     _scr+1
;
; row_index = scr>>3;
;
L0804:	lda     _scr
	ldx     _scr+1
	jsr     asrax3
	sta     _temp0
;
; if(row_index>=60) row_index-=60;
;
	cmp     #$3C
	bcc     L080A
	lda     _temp0
	sec
	sbc     #$3C
	sta     _temp0
;
; if(last_row_index != row_index){
;
L080A:	ldx     #$00
	lda     _temp0
	cpx     _last_row_index+1
	bne     L0F39
	cmp     _last_row_index
	jeq     L0C03
;
; last_row_index = row_index;
;
L0F39:	lda     _temp0
	sta     _last_row_index
	stx     _last_row_index+1
;
; update_list[2]=32;
;
	lda     #$20
	sta     _update_list+2
;
; if(row_index<30){
;
	lda     _temp0
	cmp     #$1E
	bcs     L0815
;
; adr = NAMETABLE_A+(row_index<<5);
;
	lda     _temp0
	jsr     aslax4
	stx     tmp1
	asl     a
	rol     tmp1
	sta     _adr
	lda     tmp1
	clc
	adc     #$20
	sta     _adr+1
;
; update_list[0]=MSB(adr)|NT_UPD_HORZ;
;
	ora     #$40
	sta     _update_list
;
; update_list[1]=LSB(adr);
;
	lda     _adr
	sta     _update_list+1
;
; adr=NAMETABLE_A+960+((row_index>>2)<<3);
;
	ldx     #$00
	lda     _temp0
	jsr     asrax2
	jsr     aslax3
	clc
	adc     #$C0
	sta     _adr
	txa
	adc     #$23
;
; }else{
;
	jmp     L0F5F
;
; row_index-=30;
;
L0815:	lda     _temp0
	sec
	sbc     #$1E
	sta     _temp0
;
; adr = NAMETABLE_C+(row_index<<5);
;
	jsr     aslax4
	stx     tmp1
	asl     a
	rol     tmp1
	sta     _adr
	lda     tmp1
	clc
	adc     #$28
	sta     _adr+1
;
; update_list[0]=MSB(adr)|NT_UPD_HORZ;
;
	ora     #$40
	sta     _update_list
;
; update_list[1]=LSB(adr);
;
	lda     _adr
	sta     _update_list+1
;
; adr=NAMETABLE_C+960+((row_index>>2)<<3);
;
	ldx     #$00
	lda     _temp0
	jsr     asrax2
	jsr     aslax3
	clc
	adc     #$C0
	sta     _adr
	txa
	adc     #$2B
L0F5F:	sta     _adr+1
;
; update_list[35]=MSB(adr)|NT_UPD_HORZ;//set attribute table update address
;
	ora     #$40
	sta     _update_list+35
;
; update_list[36]=LSB(adr);
;
	lda     _adr
	sta     _update_list+36
;
; if(row_index&1){ // build new line
;
	lda     _temp0
	and     #$01
	jeq     L0A1F
;
; if((wall_hit_y[0]&0xF) != 0xF){
;
	lda     _wall_hit_y
	and     #$0F
	cmp     #$0F
	beq     L085A
;
; wall_hit_y[0]++;
;
	lda     _wall_hit_y
	clc
	adc     #$01
	sta     _wall_hit_y
;
; if((wall_hit_y[1]&0xF) != 0xF){
;
L085A:	lda     _wall_hit_y+1
	and     #$0F
	cmp     #$0F
	beq     L0861
;
; wall_hit_y[1]++;
;
	lda     _wall_hit_y+1
	clc
	adc     #$01
	sta     _wall_hit_y+1
;
; if((wall_hit_y[0]&0xF0) != 0xF0){
;
L0861:	lda     _wall_hit_y
	and     #$F0
	cmp     #$F0
	beq     L0868
;
; wall_hit_y[0]+=0x10;
;
	lda     #$10
	clc
	adc     _wall_hit_y
	sta     _wall_hit_y
;
; if((wall_hit_y[1]&0xF0) != 0xF0){
;
L0868:	lda     _wall_hit_y+1
	and     #$F0
	cmp     #$F0
	beq     L0870
;
; wall_hit_y[1]+=0x10;
;
	lda     #$10
	clc
	adc     _wall_hit_y+1
	sta     _wall_hit_y+1
;
; for(i=2; i<16; i++){
;
L0870:	lda     #$02
L0F3C:	sta     _i
	cmp     #$10
	bcs     L0879
;
; prev_line[i] = current_line[i];
;
	lda     #<(_prev_line)
	ldx     #>(_prev_line)
	clc
	adc     _i
	bcc     L0882
	inx
L0882:	sta     ptr1
	stx     ptr1+1
	ldy     _i
	lda     _current_line,y
	ldy     #$00
	sta     (ptr1),y
;
; current_line[i] = next_line[i];
;
	lda     #<(_current_line)
	ldx     #>(_current_line)
	clc
	adc     _i
	bcc     L0888
	inx
L0888:	sta     ptr1
	stx     ptr1+1
	ldy     _i
	lda     _next_line,y
	ldy     #$00
	sta     (ptr1),y
;
; if(i==2 || i==15){
;
	lda     _i
	cmp     #$02
	beq     L088D
	lda     _i
	cmp     #$0F
	bne     L088C
;
; if(rand8() < 30){
;
L088D:	jsr     _rand8
	cmp     #$1E
	bcs     L087A
;
; if(next_line[i] == WALL) next_line[i] = GRASS;
;
	ldy     _i
	lda     _next_line,y
	cmp     #$01
;
; else next_line[i] = WALL;
;
	beq     L088C
	ldy     _i
	lda     #$01
;
; } else {
;
	jmp     L0EFF
;
; next_line[i] = GRASS;
;
L088C:	ldy     _i
	lda     #$00
L0EFF:	sta     _next_line,y
;
; for(i=2; i<16; i++){
;
L087A:	lda     _i
	clc
	adc     #$01
	jmp     L0F3C
;
; wall_count -= (wall_count>>3);
;
L0879:	ldx     #$00
	lda     _wall_count
	jsr     asrax3
	eor     #$FF
	sec
	adc     _wall_count
	sta     _wall_count
;
; if(wall_count>0) wall_count--;
;
	lda     _wall_count
	beq     L08A6
	lda     _wall_count
	sec
	sbc     #$01
	sta     _wall_count
;
; if(has_big_wall) has_big_wall--;
;
L08A6:	lda     _has_big_wall
	beq     L08A9
	lda     _has_big_wall
	sec
	sbc     #$01
	sta     _has_big_wall
;
; if(wall_count < 2 && (rand8()<150)){
;
L08A9:	lda     _wall_count
	cmp     #$02
	jcs     L08ED
	jsr     _rand8
	cmp     #$96
	jcs     L08ED
;
; wall_count = 0;
;
	lda     #$00
	sta     _wall_count
;
; random = rand8();
;
	jsr     _rand8
	sta     _temp2
;
; if(has_big_wall) selected_grid = WALL;
;
	lda     _has_big_wall
;
; else if(random < 60) selected_grid = WATER;
;
	bne     L08C4
	lda     _temp2
	cmp     #$3C
	bcs     L08BA
	lda     #$02
;
; else if(random < 120) selected_grid = FOREST;
;
	jmp     L0F00
L08BA:	lda     _temp2
	cmp     #$78
	bcs     L08BF
	lda     #$04
;
; else if(random < 180){
;
	jmp     L0F00
L08BF:	lda     _temp2
	cmp     #$B4
	bcs     L08C4
;
; selected_grid = WALL_BIG;
;
	lda     #$05
	sta     _temp1
;
; has_big_wall = 2;
;
	lda     #$02
	sta     _has_big_wall
;
; } else {
;
	jmp     L08CA
;
; selected_grid = WALL;
;
L08C4:	lda     #$01
L0F00:	sta     _temp1
;
; grid_start = 4+(rand8()&1)+(rand8()&3)+(rand8()&5);
;
L08CA:	jsr     _rand8
	ldx     #$00
	and     #$01
	clc
	adc     #$04
	bcc     L08D0
	inx
L08D0:	jsr     pushax
	jsr     _rand8
	and     #$03
	jsr     tosadda0
	jsr     pushax
	jsr     _rand8
	and     #$05
	jsr     tosadda0
	sta     _temp2
;
; grid_end = grid_start;
;
	sta     _temp3
;
; if(rand8()&1) grid_start--;
;
	jsr     _rand8
	and     #$01
	beq     L08D5
	lda     _temp2
	sec
	sbc     #$01
	sta     _temp2
;
; if(rand8()&1) grid_end++;
;
L08D5:	jsr     _rand8
	and     #$01
	beq     L08D8
	lda     _temp3
	clc
	adc     #$01
	sta     _temp3
;
; if(selected_grid != WALL_BIG){
;
L08D8:	lda     _temp1
	cmp     #$05
	beq     L08DB
;
; if(rand8()&1) grid_start--;
;
	jsr     _rand8
	and     #$01
	beq     L08DD
	lda     _temp2
	sec
	sbc     #$01
	sta     _temp2
;
; if(rand8()&1) grid_end++;
;
L08DD:	jsr     _rand8
	and     #$01
	beq     L08EA
	lda     _temp3
	clc
	adc     #$01
	sta     _temp3
;
; }else{
;
	jmp     L08EA
;
; if(grid_start == grid_end) (rand8()&1)?grid_end++:grid_start--;
;
L08DB:	lda     _temp3
	cmp     _temp2
	bne     L08EA
	jsr     _rand8
	and     #$01
	beq     L08E8
	lda     _temp3
	clc
	adc     #$01
	sta     _temp3
	jmp     L08EA
L08E8:	lda     _temp2
	sec
	sbc     #$01
	sta     _temp2
;
; for(i=grid_start; i<=grid_end; i++){
;
L08EA:	lda     _temp2
L0F3D:	sta     _i
	sec
	sbc     _temp3
	bcc     L08EF
	bne     L08ED
;
; next_line[i] = selected_grid;
;
L08EF:	ldy     _i
	lda     _temp1
	sta     _next_line,y
;
; wall_count++;
;
	lda     _wall_count
	clc
	adc     #$01
	sta     _wall_count
;
; for(i=grid_start; i<=grid_end; i++){
;
	lda     _i
	clc
	adc     #$01
	jmp     L0F3D
;
; for(i=2; i<16; i++){
;
L08ED:	lda     #$02
L0F41:	sta     _i
	cmp     #$10
	jcs     L08FA
;
; if(next_line[i] == GRASS){
;
	ldy     _i
	lda     _next_line,y
	jne     L08FB
;
; if(current_line[i] == WALL_BIG){
;
	ldy     _i
	lda     _current_line,y
	cmp     #$05
	bne     L0905
;
; next_line[i] = WALL;
;
	ldy     _i
	lda     #$01
	sta     _next_line,y
;
; }else{
;
	jmp     L08FB
;
; chance_to_grow = ((next_line[i+1]&WALL&(i<13))<<1)+
;
L0905:	ldx     #$00
	lda     _i
	clc
	adc     #$01
	bcc     L0913
	inx
L0913:	sta     ptr1
	txa
	clc
	adc     #>(_next_line)
	sta     ptr1+1
	ldy     #<(_next_line)
	lda     (ptr1),y
	and     #$01
	jsr     pusha0
	lda     _i
	cmp     #$0D
	jsr     boolult
	jsr     tosanda0
	asl     a
	bcc     L0EE5
	ldx     #$01
;
; ((next_line[i-1]&WALL&(i>3))<<1)+
;
L0EE5:	sta     sreg
	stx     sreg+1
	ldx     #$00
	lda     _i
	sec
	sbc     #$01
	bcs     L0918
	dex
L0918:	sta     ptr1
	txa
	clc
	adc     #>(_next_line)
	sta     ptr1+1
	ldy     #<(_next_line)
	lda     (ptr1),y
	and     #$01
	sta     ptr1
	lda     _i
	cmp     #$04
	lda     #$00
	rol     a
	and     ptr1
	ldx     #$00
	asl     a
	bcc     L0F57
	inx
	clc
L0F57:	adc     sreg
;
; ((current_line[i]&WALL)<<1)+
;
	sta     ptr1
;
; ((next_line[i-1]&WALL&(i>3))<<1)+
;
	txa
	adc     sreg+1
;
; ((current_line[i]&WALL)<<1)+
;
	sta     ptr1+1
	ldy     _i
	lda     _current_line,y
	ldx     #$00
	and     #$01
	asl     a
	bcc     L0F10
	inx
	clc
L0F10:	adc     ptr1
;
; ((current_line[i-1]&WALL&(i>3)))+
;
	sta     sreg
;
; ((current_line[i]&WALL)<<1)+
;
	txa
	adc     ptr1+1
;
; ((current_line[i-1]&WALL&(i>3)))+
;
	sta     sreg+1
	ldx     #$00
	lda     _i
	sec
	sbc     #$01
	bcs     L0921
	dex
L0921:	sta     ptr1
	txa
	clc
	adc     #>(_current_line)
	sta     ptr1+1
	ldy     #<(_current_line)
	lda     (ptr1),y
	and     #$01
	sta     ptr1
	lda     _i
	cmp     #$04
	lda     #$00
	rol     a
	and     ptr1
	clc
	adc     sreg
	ldx     sreg+1
	bcc     L0F4E
	inx
;
; ((current_line[i+1]&WALL&(i<13)));
;
L0F4E:	jsr     pushax
	ldx     #$00
	lda     _i
	clc
	adc     #$01
	bcc     L0926
	inx
L0926:	sta     ptr1
	txa
	clc
	adc     #>(_current_line)
	sta     ptr1+1
	ldy     #<(_current_line)
	lda     (ptr1),y
	and     #$01
	jsr     pusha0
	lda     _i
	cmp     #$0D
	jsr     boolult
	jsr     tosanda0
	jsr     tosadda0
	sta     _temp3
;
; grow_chance_reduction = (wall_count>>2);
;
	ldx     #$00
	lda     _wall_count
	jsr     asrax2
	sta     _temp2
;
; if(chance_to_grow > grow_chance_reduction){
;
	lda     _temp3
	sec
	sbc     _temp2
	bcc     L092B
	beq     L092B
;
; chance_to_grow -= grow_chance_reduction;
;
	lda     _temp2
	eor     #$FF
	sec
	adc     _temp3
;
; } else {
;
	jmp     L0F02
;
; chance_to_grow = 0;
;
L092B:	lda     #$00
L0F02:	sta     _temp3
;
; if(chance_to_grow >= 4){
;
	cmp     #$04
;
; }else if(chance_to_grow >= 2){
;
	bcs     L0F74
	lda     _temp3
	cmp     #$02
	bcc     L093C
;
; if(rand8()&1){
;
	jsr     _rand8
	and     #$01
	beq     L093C
;
; next_line[i] = WALL;
;
L0F74:	ldy     _i
	lda     #$01
	sta     _next_line,y
;
; wall_count++;
;
	lda     _wall_count
	clc
	adc     #$01
	sta     _wall_count
;
; chance_to_grow = ((next_line[i+1]==WATER)<<1)+
;
L093C:	ldx     #$00
	lda     _i
	clc
	adc     #$01
	bcc     L0948
	inx
L0948:	sta     ptr1
	txa
	clc
	adc     #>(_next_line)
	sta     ptr1+1
	ldy     #<(_next_line)
	lda     (ptr1),y
	cmp     #$02
	jsr     booleq
	asl     a
	bcc     L0EE8
	inx
;
; ((next_line[i-1]==WATER)<<1)+
;
L0EE8:	jsr     pushax
	ldx     #$00
	lda     _i
	sec
	sbc     #$01
	bcs     L094C
	dex
L094C:	sta     ptr1
	txa
	clc
	adc     #>(_next_line)
	sta     ptr1+1
	ldy     #<(_next_line)
	lda     (ptr1),y
	cmp     #$02
	jsr     booleq
	asl     a
	bcc     L0EE9
	inx
L0EE9:	jsr     tosaddax
;
; ((current_line[i]==WATER)<<1)+
;
	jsr     pushax
	ldy     _i
	lda     _current_line,y
	cmp     #$02
	jsr     booleq
	asl     a
	bcc     L0EEA
	inx
L0EEA:	jsr     tosaddax
;
; ((current_line[i-1]==WATER))+
;
	jsr     pushax
	ldx     #$00
	lda     _i
	sec
	sbc     #$01
	bcs     L0954
	dex
L0954:	sta     ptr1
	txa
	clc
	adc     #>(_current_line)
	sta     ptr1+1
	ldy     #<(_current_line)
	lda     (ptr1),y
	cmp     #$02
	jsr     booleq
	jsr     tosadda0
;
; ((current_line[i+1]==WATER));
;
	jsr     pushax
	ldx     #$00
	lda     _i
	clc
	adc     #$01
	bcc     L0958
	inx
L0958:	sta     ptr1
	txa
	clc
	adc     #>(_current_line)
	sta     ptr1+1
	ldy     #<(_current_line)
	lda     (ptr1),y
	cmp     #$02
	jsr     booleq
	jsr     tosadda0
	sta     _temp3
;
; if(chance_to_grow > grow_chance_reduction){
;
	sec
	sbc     _temp2
	bcc     L0959
	beq     L0959
;
; chance_to_grow -= grow_chance_reduction;
;
	lda     _temp2
	eor     #$FF
	sec
	adc     _temp3
;
; } else {
;
	jmp     L0F04
;
; chance_to_grow = 0;
;
L0959:	lda     #$00
L0F04:	sta     _temp3
;
; if(chance_to_grow >= 5){
;
	cmp     #$05
;
; }else if(chance_to_grow >= 3){
;
	bcs     L0F75
	lda     _temp3
	cmp     #$03
	bcc     L096A
;
; if(rand8()&3){
;
	jsr     _rand8
	and     #$03
	beq     L096A
;
; next_line[i] = WATER;
;
L0F75:	ldy     _i
	lda     #$02
	sta     _next_line,y
;
; wall_count++;
;
	lda     _wall_count
	clc
	adc     #$01
	sta     _wall_count
;
; chance_to_grow = ((next_line[i+1]==FOREST)<<1)+
;
L096A:	ldx     #$00
	lda     _i
	clc
	adc     #$01
	bcc     L0976
	inx
L0976:	sta     ptr1
	txa
	clc
	adc     #>(_next_line)
	sta     ptr1+1
	ldy     #<(_next_line)
	lda     (ptr1),y
	cmp     #$04
	jsr     booleq
	asl     a
	bcc     L0EEB
	inx
;
; ((next_line[i-1]==FOREST)<<1)+
;
L0EEB:	jsr     pushax
	ldx     #$00
	lda     _i
	sec
	sbc     #$01
	bcs     L097A
	dex
L097A:	sta     ptr1
	txa
	clc
	adc     #>(_next_line)
	sta     ptr1+1
	ldy     #<(_next_line)
	lda     (ptr1),y
	cmp     #$04
	jsr     booleq
	asl     a
	bcc     L0EEC
	inx
L0EEC:	jsr     tosaddax
;
; ((current_line[i]==FOREST)<<1)+
;
	jsr     pushax
	ldy     _i
	lda     _current_line,y
	cmp     #$04
	jsr     booleq
	asl     a
	bcc     L0EED
	inx
L0EED:	jsr     tosaddax
;
; ((current_line[i-1]==FOREST))+
;
	jsr     pushax
	ldx     #$00
	lda     _i
	sec
	sbc     #$01
	bcs     L0982
	dex
L0982:	sta     ptr1
	txa
	clc
	adc     #>(_current_line)
	sta     ptr1+1
	ldy     #<(_current_line)
	lda     (ptr1),y
	cmp     #$04
	jsr     booleq
	jsr     tosadda0
;
; ((current_line[i+1]==FOREST));
;
	jsr     pushax
	ldx     #$00
	lda     _i
	clc
	adc     #$01
	bcc     L0986
	inx
L0986:	sta     ptr1
	txa
	clc
	adc     #>(_current_line)
	sta     ptr1+1
	ldy     #<(_current_line)
	lda     (ptr1),y
	cmp     #$04
	jsr     booleq
	jsr     tosadda0
	sta     _temp3
;
; if(chance_to_grow > grow_chance_reduction){
;
	sec
	sbc     _temp2
	bcc     L0987
	beq     L0987
;
; chance_to_grow -= grow_chance_reduction;
;
	lda     _temp2
	eor     #$FF
	sec
	adc     _temp3
;
; } else {
;
	jmp     L0F06
;
; chance_to_grow = 0;
;
L0987:	lda     #$00
L0F06:	sta     _temp3
;
; if(chance_to_grow >= 5){
;
	cmp     #$05
;
; }else if(chance_to_grow >= 3){
;
	bcs     L0F76
	lda     _temp3
	cmp     #$03
	bcc     L08FB
;
; if(rand8()&3){
;
	jsr     _rand8
	and     #$03
	beq     L08FB
;
; next_line[i] = FOREST;
;
L0F76:	ldy     _i
	lda     #$04
	sta     _next_line,y
;
; wall_count++;
;
	lda     _wall_count
	clc
	adc     #$01
	sta     _wall_count
;
; for(i=2; i<16; i++){
;
L08FB:	lda     _i
	clc
	adc     #$01
	jmp     L0F41
;
; for(i=2; i<16; i++){
;
L08FA:	lda     #$02
L0F42:	sta     _i
	cmp     #$10
	bcs     L09A0
;
; if(next_line[i] == WALL && (next_line[i-1] == WALL_BIG || next_line[i+1] == WALL_BIG)){
;
	ldy     _i
	lda     _next_line,y
	cmp     #$01
	bne     L09A1
	ldx     #$00
	lda     _i
	sec
	sbc     #$01
	bcs     L09AE
	dex
L09AE:	sta     ptr1
	txa
	clc
	adc     #>(_next_line)
	sta     ptr1+1
	ldy     #<(_next_line)
	lda     (ptr1),y
	cmp     #$05
	beq     L09A8
	ldx     #$00
	lda     _i
	clc
	adc     #$01
	bcc     L09B0
	inx
L09B0:	sta     ptr1
	txa
	clc
	adc     #>(_next_line)
	sta     ptr1+1
	ldy     #<(_next_line)
	lda     (ptr1),y
	cmp     #$05
	bne     L09A1
;
; if(i==2 || i == 15) next_line[i] = GRASS;
;
L09A8:	lda     _i
	cmp     #$02
	beq     L09B4
	lda     _i
	cmp     #$0F
	bne     L09B3
L09B4:	ldy     _i
	lda     #$00
;
; else next_line[i] = WALL_BIG;
;
	jmp     L0F08
L09B3:	ldy     _i
	lda     #$05
L0F08:	sta     _next_line,y
;
; for(i=2; i<16; i++){
;
L09A1:	lda     _i
	clc
	adc     #$01
	jmp     L0F42
;
; for(i=2; i<16; i++){
;
L09A0:	lda     #$02
L0F43:	sta     _i
	cmp     #$10
	jcs     L09C0
;
; if(current_line[i] == WALL && 
;
	ldy     _i
	lda     _current_line,y
	cmp     #$01
	jne     L09C1
;
; ((current_line[i-1]&WALL) && (current_line[i+1]&WALL) && 
;
	ldx     #$00
	lda     _i
	sec
	sbc     #$01
	bcs     L09CF
	dex
L09CF:	sta     ptr1
	txa
	clc
	adc     #>(_current_line)
	sta     ptr1+1
	ldy     #<(_current_line)
	lda     (ptr1),y
	and     #$01
	jeq     L09C1
	ldx     #$00
	lda     _i
	clc
	adc     #$01
	bcc     L09D3
	inx
L09D3:	sta     ptr1
	txa
	clc
	adc     #>(_current_line)
	sta     ptr1+1
	ldy     #<(_current_line)
	lda     (ptr1),y
	and     #$01
	jeq     L09C1
;
; (next_line[i]&WALL) && (prev_line[i]&WALL) 
;
	ldy     _i
	lda     _next_line,y
	and     #$01
	jeq     L09C1
	ldy     _i
	lda     _prev_line,y
	and     #$01
;
; && (next_line[i-1]&WALL) && (next_line[i+1]&WALL) 
;
	beq     L09C1
	ldx     #$00
	lda     _i
	sec
	sbc     #$01
	bcs     L09DC
	dex
L09DC:	sta     ptr1
	txa
	clc
	adc     #>(_next_line)
	sta     ptr1+1
	ldy     #<(_next_line)
	lda     (ptr1),y
	and     #$01
	beq     L09C1
	ldx     #$00
	lda     _i
	clc
	adc     #$01
	bcc     L09DF
	inx
L09DF:	sta     ptr1
	txa
	clc
	adc     #>(_next_line)
	sta     ptr1+1
	ldy     #<(_next_line)
	lda     (ptr1),y
	and     #$01
;
; && (prev_line[i-1]&WALL) && (prev_line[i+1]&WALL))
;
	beq     L09C1
	ldx     #$00
	lda     _i
	sec
	sbc     #$01
	bcs     L09E2
	dex
L09E2:	sta     ptr1
	txa
	clc
	adc     #>(_prev_line)
	sta     ptr1+1
	ldy     #<(_prev_line)
	lda     (ptr1),y
	and     #$01
	beq     L09C1
	ldx     #$00
	lda     _i
	clc
	adc     #$01
	bcc     L09E5
	inx
L09E5:	sta     ptr1
	txa
	clc
	adc     #>(_prev_line)
	sta     ptr1+1
	ldy     #<(_prev_line)
	lda     (ptr1),y
	and     #$01
	beq     L09C1
;
; current_line[i] = WALL_GREEN;
;
	ldy     _i
	lda     #$03
	sta     _current_line,y
;
; for(i=2; i<16; i++){
;
L09C1:	lda     _i
	clc
	adc     #$01
	jmp     L0F43
;
; if((current_line[2]&WALL) && (prev_line[2]&WALL) && (next_line[2]&WALL)){
;
L09C0:	lda     _current_line+2
	and     #$01
	beq     L09EC
	lda     _prev_line+2
	and     #$01
	beq     L09EC
	lda     _next_line+2
	and     #$01
	beq     L09EC
;
; current_line[1] = WALL_GREEN;
;
	lda     #$03
	sta     _current_line+1
;
; if((current_line[15]&WALL) && (prev_line[15]&WALL) && (next_line[15]&WALL)){
;
L09EC:	lda     _current_line+15
	and     #$01
	beq     L09F9
	lda     _prev_line+15
	and     #$01
	beq     L09F9
	lda     _next_line+15
	and     #$01
	beq     L09F9
;
; current_line[16] = WALL_GREEN;
;
	lda     #$03
	sta     _current_line+16
;
; for(i=14; i>0; i--){
;
L09F9:	lda     #$0E
L0F44:	sta     _i
	lda     _i
	jeq     L0A07
;
; blocked[i] = blocked[i-1];
;
	ldx     #$00
	lda     _i
	asl     a
	bcc     L0F11
	inx
	clc
L0F11:	adc     #<(_blocked)
	tay
	txa
	adc     #>(_blocked)
	tax
	tya
	jsr     pushax
	ldx     #$00
	lda     _i
	sec
	sbc     #$01
	bcs     L0A12
	dex
L0A12:	stx     tmp1
	asl     a
	rol     tmp1
	clc
	adc     #<(_blocked)
	sta     ptr1
	lda     tmp1
	adc     #>(_blocked)
	sta     ptr1+1
	ldy     #$01
	lda     (ptr1),y
	tax
	dey
	lda     (ptr1),y
	jsr     staxspidx
;
; bullet_blocked[i] = bullet_blocked[i-1];
;
	ldx     #$00
	lda     _i
	asl     a
	bcc     L0F12
	inx
	clc
L0F12:	adc     #<(_bullet_blocked)
	tay
	txa
	adc     #>(_bullet_blocked)
	tax
	tya
	jsr     pushax
	ldx     #$00
	lda     _i
	sec
	sbc     #$01
	bcs     L0A17
	dex
L0A17:	stx     tmp1
	asl     a
	rol     tmp1
	clc
	adc     #<(_bullet_blocked)
	sta     ptr1
	lda     tmp1
	adc     #>(_bullet_blocked)
	sta     ptr1+1
	ldy     #$01
	lda     (ptr1),y
	tax
	dey
	lda     (ptr1),y
	jsr     staxspidx
;
; for(i=14; i>0; i--){
;
	lda     _i
	sec
	sbc     #$01
	jmp     L0F44
;
; blocked[0] = 0;
;
L0A07:	sta     _blocked
	sta     _blocked+1
;
; bullet_blocked[0] = 0;
;
	sta     _bullet_blocked
	sta     _bullet_blocked+1
;
; for(i=0; i<16; i++){
;
L0F45:	sta     _i
	cmp     #$10
	bcs     L0A1F
;
; if(current_line[i+1] != GRASS){
;
	ldx     #$00
	lda     _i
	clc
	adc     #$01
	bcc     L0A29
	inx
L0A29:	sta     ptr1
	txa
	clc
	adc     #>(_current_line)
	sta     ptr1+1
	ldy     #<(_current_line)
	lda     (ptr1),y
	beq     L0A20
;
; blocked[0] |= (1<<i);
;
	lda     _blocked
	ldx     _blocked+1
	jsr     pushax
	lda     #$01
	jsr     pusha0
	lda     _i
	jsr     tosaslax
	jsr     tosorax
	sta     _blocked
	stx     _blocked+1
;
; if(current_line[i+1] != WATER){
;
	ldx     #$00
	lda     _i
	clc
	adc     #$01
	bcc     L0A31
	inx
L0A31:	sta     ptr1
	txa
	clc
	adc     #>(_current_line)
	sta     ptr1+1
	ldy     #<(_current_line)
	lda     (ptr1),y
	cmp     #$02
	beq     L0A20
;
; bullet_blocked[0] |= (1<<i);
;
	lda     _bullet_blocked
	ldx     _bullet_blocked+1
	jsr     pushax
	lda     #$01
	jsr     pusha0
	lda     _i
	jsr     tosaslax
	jsr     tosorax
	sta     _bullet_blocked
	stx     _bullet_blocked+1
;
; for(i=0; i<16; i++){
;
L0A20:	lda     _i
	clc
	adc     #$01
	jmp     L0F45
;
; for(i=0; i<32; i++){
;
L0A1F:	lda     #$00
L0F4D:	sta     _i
	cmp     #$20
	jcs     L0A37
;
; column_index = 1+(i>>1);
;
	ldx     #$00
	lda     _i
	jsr     asrax1
	clc
	adc     #$01
	sta     _temp3
;
; cell_index = ((((row_index&1)==0)<<1)+(i&1));
;
	lda     _temp0
	and     #$01
	jsr     booleq
	asl     a
	sta     ptr1
	lda     _i
	and     #$01
	clc
	adc     ptr1
	sta     _temp1
;
; switch(current_line[column_index]){
;
	ldy     _temp3
	lda     _current_line,y
;
; }
;
	jeq     L0AD8
	cmp     #$01
	beq     L0A52
	cmp     #$02
	beq     L0A52
	cmp     #$03
	jeq     L0AD8
	cmp     #$04
	jeq     L0B3B
	cmp     #$05
	jeq     L0AEA
	jmp     L0A38
;
; cell_type = current_line[column_index];
;
L0A52:	ldy     _temp3
	lda     _current_line,y
	sta     _temp4
;
; if(cell_index&1){
;
	lda     _temp1
	and     #$01
	beq     L0A57
;
; same_neigbour_dirs = (current_line[column_index+1]&cell_type)!=0;
;
	lda     _temp3
	clc
	adc     #$01
	bcc     L0A5D
	inx
L0A5D:	sta     ptr1
	txa
	clc
	adc     #>(_current_line)
	sta     ptr1+1
	ldy     #<(_current_line)
	lda     (ptr1),y
	sta     ptr1
	lda     _temp4
	and     ptr1
	jsr     boolne
	sta     _temp2
;
; if(cell_index<2){
;
	lda     _temp1
	cmp     #$02
	bcs     L0A5F
;
; same_neigbour_dirs += (((prev_line[column_index+1]&cell_type)!=0)<<2);
;
	lda     _temp3
	clc
	adc     #$01
	bcc     L0A67
	inx
L0A67:	sta     ptr1
	txa
	clc
	adc     #>(_prev_line)
	sta     ptr1+1
	ldy     #<(_prev_line)
	lda     (ptr1),y
	sta     ptr1
	lda     _temp4
	and     ptr1
	jsr     boolne
;
; }else{
;
	jmp     L0F63
;
; same_neigbour_dirs += ((next_line[column_index+1]==cell_type)<<2);
;
L0A5F:	lda     _temp3
	clc
	adc     #$01
	bcc     L0A87
	inx
;
; }else{
;
	jmp     L0A87
;
; same_neigbour_dirs = (current_line[column_index-1]&cell_type)!=0;
;
L0A57:	lda     _temp3
	sec
	sbc     #$01
	bcs     L0A75
	dex
L0A75:	sta     ptr1
	txa
	clc
	adc     #>(_current_line)
	sta     ptr1+1
	ldy     #<(_current_line)
	lda     (ptr1),y
	sta     ptr1
	lda     _temp4
	and     ptr1
	jsr     boolne
	sta     _temp2
;
; if(cell_index<2){
;
	lda     _temp1
	cmp     #$02
	bcs     L0A77
;
; same_neigbour_dirs += (((prev_line[column_index-1]&cell_type)!=0)<<2);
;
	lda     _temp3
	sec
	sbc     #$01
	bcs     L0A7F
	dex
L0A7F:	sta     ptr1
	txa
	clc
	adc     #>(_prev_line)
	sta     ptr1+1
	ldy     #<(_prev_line)
	lda     (ptr1),y
	sta     ptr1
	lda     _temp4
	and     ptr1
	jsr     boolne
;
; }else{
;
	jmp     L0F63
;
; same_neigbour_dirs += ((next_line[column_index-1]==cell_type)<<2);
;
L0A77:	lda     _temp3
	sec
	sbc     #$01
	bcs     L0A87
	dex
L0A87:	sta     ptr1
	txa
	clc
	adc     #>(_next_line)
	sta     ptr1+1
	ldy     #<(_next_line)
	lda     (ptr1),y
	cmp     _temp4
	jsr     booleq
L0F63:	asl     a
	asl     a
	clc
	adc     _temp2
	sta     _temp2
;
; if(cell_index<2){
;
	lda     _temp1
	cmp     #$02
	bcs     L0A88
;
; same_neigbour_dirs += (((prev_line[column_index]&cell_type)!=0)<<1);
;
	ldy     _temp3
	lda     _prev_line,y
	sta     ptr1
	lda     _temp4
	and     ptr1
	jsr     boolne
;
; }else{
;
	jmp     L0F5D
;
; same_neigbour_dirs += ((next_line[column_index]==cell_type)<<1);
;
L0A88:	ldy     _temp3
	lda     _next_line,y
	cmp     _temp4
	jsr     booleq
L0F5D:	asl     a
	clc
	adc     _temp2
	sta     _temp2
;
; if(same_neigbour_dirs == 7){
;
	cmp     #$07
	bne     L0A99
;
; if(rand8()&15){
;
	jsr     _rand8
	and     #$0F
	beq     L0A9B
;
; update_list[3+i] = (cell_type == WALL?0:0xEC);
;
	ldx     #$00
	lda     _i
	clc
	adc     #$03
	bcc     L0F13
	inx
	clc
L0F13:	adc     #<(_update_list)
	tay
	txa
	adc     #>(_update_list)
	tax
	tya
	jsr     pushax
	lda     _temp4
	cmp     #$01
	bne     L0AA2
	lda     #$00
	jmp     L0F49
L0AA2:	lda     #$EC
;
; }else{
;
	jmp     L0F49
;
; update_list[3+i] =  (cell_type == WALL?0x66:0xCC) + (rand8()&3);
;
L0A9B:	tax
	lda     _i
	clc
	adc     #$03
	bcc     L0F14
	inx
	clc
L0F14:	adc     #<(_update_list)
	tay
	txa
	adc     #>(_update_list)
	tax
	tya
	jsr     pushax
	lda     _temp4
	cmp     #$01
	bne     L0AAC
	lda     #$66
	jmp     L0AAE
L0AAC:	lda     #$CC
L0AAE:	jsr     pusha0
	jsr     _rand8
	and     #$03
	jsr     tosadda0
;
; }else{
;
	jmp     L0F49
;
; if(same_neigbour_dirs>=4) same_neigbour_dirs -= 4;
;
L0A99:	lda     _temp2
	cmp     #$04
	bcc     L0AB2
	lda     _temp2
	sec
	sbc     #$04
	sta     _temp2
;
; if(cell_type == WALL){
;
L0AB2:	lda     _temp4
	cmp     #$01
	bne     L0AB6
;
; update_list[3+i] = wall_tiles[(cell_index<<2)+same_neigbour_dirs];
;
	lda     _i
	clc
	adc     #$03
	bcc     L0F15
	inx
	clc
L0F15:	adc     #<(_update_list)
	sta     sreg
	txa
	adc     #>(_update_list)
	sta     sreg+1
	ldx     #$00
	lda     _temp1
	jsr     aslax2
	clc
	adc     _temp2
	bcc     L0EE2
	inx
L0EE2:	sta     ptr1
	txa
	clc
	adc     #>(_wall_tiles)
	sta     ptr1+1
	ldy     #<(_wall_tiles)
;
; }else{
;
	jmp     L0F55
;
; update_list[3+i] = water_tiles[(cell_index<<2)+same_neigbour_dirs];
;
L0AB6:	lda     _i
	clc
	adc     #$03
	bcc     L0F16
	inx
	clc
L0F16:	adc     #<(_update_list)
	sta     sreg
	txa
	adc     #>(_update_list)
	sta     sreg+1
	ldx     #$00
	lda     _temp1
	jsr     aslax2
	clc
	adc     _temp2
	bcc     L0EE3
	inx
L0EE3:	sta     ptr1
	txa
	clc
	adc     #>(_water_tiles)
	sta     ptr1+1
	ldy     #<(_water_tiles)
L0F55:	lda     (ptr1),y
	ldy     #$00
	sta     (sreg),y
;
; if(same_neigbour_dirs==1 || same_neigbour_dirs == 2) update_list[3+i] += (rand8()&3);
;
	lda     _temp2
	cmp     #$01
	beq     L0AC6
	lda     _temp2
	cmp     #$02
	bne     L0AC5
L0AC6:	ldx     #$00
	lda     _i
	clc
	adc     #$03
	bcc     L0F17
	inx
	clc
L0F17:	adc     #<(_update_list)
	tay
	txa
	adc     #>(_update_list)
	tax
	tya
	jsr     pushax
	sta     ptr1
	stx     ptr1+1
	ldx     #$00
	lda     (ptr1,x)
	jsr     pusha0
	jsr     _rand8
	and     #$03
	jsr     tosadda0
;
; else if(same_neigbour_dirs==0 && cell_type == WALL) update_list[3+i]  += (rand8()&1);
;
	jmp     L0F49
L0AC5:	lda     _temp2
	jne     L0A38
	lda     _temp4
	cmp     #$01
	jne     L0A38
	ldx     #$00
	lda     _i
	clc
	adc     #$03
	bcc     L0F18
	inx
	clc
L0F18:	adc     #<(_update_list)
	tay
	txa
	adc     #>(_update_list)
	tax
	tya
	jsr     pushax
	sta     ptr1
	stx     ptr1+1
	ldx     #$00
	lda     (ptr1,x)
	jsr     pusha0
	jsr     _rand8
	and     #$01
	jsr     tosadda0
;
; break;
;
	jmp     L0F49
;
; random = rand8()&0x3F;
;
L0AD8:	jsr     _rand8
	and     #$3F
	sta     _temp4
;
; if(random > 9){
;
	cmp     #$0A
	bcc     L0ADD
;
; update_list[3+i] = 0;
;
	ldx     #$00
	lda     _i
	clc
	adc     #$03
	bcc     L0F19
	inx
	clc
L0F19:	adc     #<(_update_list)
	sta     ptr1
	txa
	adc     #>(_update_list)
	sta     ptr1+1
	lda     #$00
	tay
	sta     (ptr1),y
;
; }else{
;
	jmp     L0A38
;
; update_list[3+i] = 0x60 + random;
;
L0ADD:	ldx     #$00
	lda     _i
	clc
	adc     #$03
	bcc     L0F1A
	inx
	clc
L0F1A:	adc     #<(_update_list)
	sta     ptr1
	txa
	adc     #>(_update_list)
	sta     ptr1+1
	lda     _temp4
	clc
	adc     #$60
	ldy     #$00
	sta     (ptr1),y
;
; break;
;
	jmp     L0A38
;
; switch(cell_index){
;
L0AEA:	lda     _temp1
;
; }
;
	beq     L0AEF
	cmp     #$01
	beq     L0B02
	cmp     #$02
	jeq     L0B15
	cmp     #$03
	jeq     L0B28
	jmp     L0A38
;
; if(current_line[column_index-1] != WALL_BIG){
;
L0AEF:	lda     _temp3
	sec
	sbc     #$01
	bcs     L0AF3
	dex
L0AF3:	sta     ptr1
	txa
	clc
	adc     #>(_current_line)
	sta     ptr1+1
	ldy     #<(_current_line)
	lda     (ptr1),y
	cmp     #$05
	beq     L0AF0
;
; update_list[3+i] = 0xA4 + (rand8()&1);
;
	ldx     #$00
	lda     _i
	clc
	adc     #$03
	bcc     L0F1B
	inx
	clc
L0F1B:	adc     #<(_update_list)
	tay
	txa
	adc     #>(_update_list)
	tax
	tya
	jsr     pushax
	jsr     _rand8
	and     #$01
	clc
	adc     #$A4
;
; }else{
;
	jmp     L0F49
;
; update_list[3+i] = 0x88 + (rand8()&3);
;
L0AF0:	ldx     #$00
	lda     _i
	clc
	adc     #$03
	bcc     L0F1C
	inx
	clc
L0F1C:	adc     #<(_update_list)
	tay
	txa
	adc     #>(_update_list)
	tax
	tya
	jsr     pushax
	jsr     _rand8
	and     #$03
	clc
	adc     #$88
;
; break;
;
	jmp     L0F49
;
; if(current_line[column_index+1] != WALL_BIG){
;
L0B02:	lda     _temp3
	clc
	adc     #$01
	bcc     L0B06
	inx
L0B06:	sta     ptr1
	txa
	clc
	adc     #>(_current_line)
	sta     ptr1+1
	ldy     #<(_current_line)
	lda     (ptr1),y
	cmp     #$05
	beq     L0B03
;
; update_list[3+i] = 0xA6 + (rand8()&1);
;
	ldx     #$00
	lda     _i
	clc
	adc     #$03
	bcc     L0F1D
	inx
	clc
L0F1D:	adc     #<(_update_list)
	tay
	txa
	adc     #>(_update_list)
	tax
	tya
	jsr     pushax
	jsr     _rand8
	and     #$01
	clc
	adc     #$A6
;
; }else{
;
	jmp     L0F49
;
; update_list[3+i] = 0x88 + (rand8()&3);
;
L0B03:	ldx     #$00
	lda     _i
	clc
	adc     #$03
	bcc     L0F1E
	inx
	clc
L0F1E:	adc     #<(_update_list)
	tay
	txa
	adc     #>(_update_list)
	tax
	tya
	jsr     pushax
	jsr     _rand8
	and     #$03
	clc
	adc     #$88
;
; break;
;
	jmp     L0F49
;
; if(current_line[column_index-1] != WALL_BIG){
;
L0B15:	lda     _temp3
	sec
	sbc     #$01
	bcs     L0B19
	dex
L0B19:	sta     ptr1
	txa
	clc
	adc     #>(_current_line)
	sta     ptr1+1
	ldy     #<(_current_line)
	lda     (ptr1),y
	cmp     #$05
	beq     L0B16
;
; update_list[3+i] = 0x94 + (rand8()&1);
;
	ldx     #$00
	lda     _i
	clc
	adc     #$03
	bcc     L0F1F
	inx
	clc
L0F1F:	adc     #<(_update_list)
	tay
	txa
	adc     #>(_update_list)
	tax
	tya
	jsr     pushax
	jsr     _rand8
	and     #$01
	clc
	adc     #$94
;
; }else{
;
	jmp     L0F49
;
; update_list[3+i] = 0x78 + (rand8()&3);
;
L0B16:	ldx     #$00
	lda     _i
	clc
	adc     #$03
	bcc     L0F20
	inx
	clc
L0F20:	adc     #<(_update_list)
	tay
	txa
	adc     #>(_update_list)
	tax
	tya
	jsr     pushax
	jsr     _rand8
	and     #$03
	clc
	adc     #$78
;
; break;
;
	jmp     L0F49
;
; if(current_line[column_index+1] != WALL_BIG){
;
L0B28:	lda     _temp3
	clc
	adc     #$01
	bcc     L0B2C
	inx
L0B2C:	sta     ptr1
	txa
	clc
	adc     #>(_current_line)
	sta     ptr1+1
	ldy     #<(_current_line)
	lda     (ptr1),y
	cmp     #$05
	beq     L0B29
;
; update_list[3+i] = 0x96 + (rand8()&1);
;
	ldx     #$00
	lda     _i
	clc
	adc     #$03
	bcc     L0F21
	inx
	clc
L0F21:	adc     #<(_update_list)
	tay
	txa
	adc     #>(_update_list)
	tax
	tya
	jsr     pushax
	jsr     _rand8
	and     #$01
	clc
	adc     #$96
;
; }else{
;
	jmp     L0F49
;
; update_list[3+i] = 0x78 + (rand8()&3);
;
L0B29:	ldx     #$00
	lda     _i
	clc
	adc     #$03
	bcc     L0F22
	inx
	clc
L0F22:	adc     #<(_update_list)
	tay
	txa
	adc     #>(_update_list)
	tax
	tya
	jsr     pushax
	jsr     _rand8
	and     #$03
	clc
	adc     #$78
;
; break;
;
	jmp     L0F49
;
; neighbour_forest_count = 0;
;
L0B3B:	stx     _temp2
;
; switch(cell_index){
;
	lda     _temp1
;
; }
;
	beq     L0B42
	cmp     #$01
	beq     L0B50
	cmp     #$02
	jeq     L0B5E
	cmp     #$03
	jeq     L0B6C
	jmp     L0B40
;
; update_list[3+i] = 0x4;
;
L0B42:	lda     _i
	clc
	adc     #$03
	bcc     L0F23
	inx
	clc
L0F23:	adc     #<(_update_list)
	sta     ptr1
	txa
	adc     #>(_update_list)
	sta     ptr1+1
	lda     #$04
	ldy     #$00
	sta     (ptr1),y
;
; neighbour_forest_count += current_line[column_index-1] == FOREST;
;
	ldx     #$00
	lda     _temp3
	sec
	sbc     #$01
	bcs     L0B4A
	dex
L0B4A:	sta     ptr1
	txa
	clc
	adc     #>(_current_line)
	sta     ptr1+1
	ldy     #<(_current_line)
	lda     (ptr1),y
	cmp     #$04
	jsr     booleq
	clc
	adc     _temp2
	sta     _temp2
;
; neighbour_forest_count += prev_line[column_index] == FOREST;
;
	ldy     _temp3
	lda     _prev_line,y
;
; break;
;
	jmp     L0F64
;
; update_list[3+i] = 0x5;
;
L0B50:	lda     _i
	clc
	adc     #$03
	bcc     L0F24
	inx
	clc
L0F24:	adc     #<(_update_list)
	sta     ptr1
	txa
	adc     #>(_update_list)
	sta     ptr1+1
	lda     #$05
	ldy     #$00
	sta     (ptr1),y
;
; neighbour_forest_count += current_line[column_index+1] == FOREST;
;
	ldx     #$00
	lda     _temp3
	clc
	adc     #$01
	bcc     L0B58
	inx
L0B58:	sta     ptr1
	txa
	clc
	adc     #>(_current_line)
	sta     ptr1+1
	ldy     #<(_current_line)
	lda     (ptr1),y
	cmp     #$04
	jsr     booleq
	clc
	adc     _temp2
	sta     _temp2
;
; neighbour_forest_count += prev_line[column_index] == FOREST;
;
	ldy     _temp3
	lda     _prev_line,y
;
; break;
;
	jmp     L0F64
;
; update_list[3+i] = 0x6;
;
L0B5E:	lda     _i
	clc
	adc     #$03
	bcc     L0F25
	inx
	clc
L0F25:	adc     #<(_update_list)
	sta     ptr1
	txa
	adc     #>(_update_list)
	sta     ptr1+1
	lda     #$06
	ldy     #$00
	sta     (ptr1),y
;
; neighbour_forest_count += current_line[column_index-1] == FOREST;
;
	ldx     #$00
	lda     _temp3
	sec
	sbc     #$01
	bcs     L0B74
	dex
;
; break;
;
	jmp     L0B74
;
; update_list[3+i] = 0x7;
;
L0B6C:	lda     _i
	clc
	adc     #$03
	bcc     L0F26
	inx
	clc
L0F26:	adc     #<(_update_list)
	sta     ptr1
	txa
	adc     #>(_update_list)
	sta     ptr1+1
	lda     #$07
	ldy     #$00
	sta     (ptr1),y
;
; neighbour_forest_count += current_line[column_index+1] == FOREST;
;
	ldx     #$00
	lda     _temp3
	clc
	adc     #$01
	bcc     L0B74
	inx
L0B74:	sta     ptr1
	txa
	clc
	adc     #>(_current_line)
	sta     ptr1+1
	ldy     #<(_current_line)
	lda     (ptr1),y
	cmp     #$04
	jsr     booleq
	clc
	adc     _temp2
	sta     _temp2
;
; neighbour_forest_count += next_line[column_index] == FOREST;
;
	ldy     _temp3
	lda     _next_line,y
L0F64:	cmp     #$04
	jsr     booleq
	clc
	adc     _temp2
	sta     _temp2
;
; cell_can_be_cleared = 0;
;
L0B40:	stx     _temp4
;
; if(cell_index == ((last_row_index + column_index)&3)){
;
	lda     _temp1
	jsr     pusha0
	lda     _last_row_index
	clc
	adc     _temp3
	and     #$03
	jsr     tosicmp0
	bne     L0B88
;
; if(neighbour_forest_count == 0){
;
	lda     _temp2
	bne     L0B7F
;
; cell_can_be_cleared = 1;
;
	lda     #$01
;
; }else if(neighbour_forest_count==1){
;
	jmp     L0F0F
L0B7F:	lda     _temp2
	cmp     #$01
	bne     L0B84
;
; cell_can_be_cleared = rand8() < 120;
;
	jsr     _rand8
	cmp     #$78
;
; }else{
;
	jmp     L0F4C
;
; cell_can_be_cleared = rand8() < 60;
;
L0B84:	jsr     _rand8
	cmp     #$3C
L0F4C:	jsr     boolult
L0F0F:	sta     _temp4
;
; if(cell_can_be_cleared){
;
L0B88:	lda     _temp4
	beq     L0B8B
;
; random = rand8()&0x3F;
;
	jsr     _rand8
	and     #$3F
	sta     _temp1
;
; if(random > 9){
;
	cmp     #$0A
	bcc     L0B8F
;
; update_list[3+i] = 0;
;
	ldx     #$00
	lda     _i
	clc
	adc     #$03
	bcc     L0F27
	inx
	clc
L0F27:	adc     #<(_update_list)
	sta     ptr1
	txa
	adc     #>(_update_list)
	sta     ptr1+1
	lda     #$00
	tay
	sta     (ptr1),y
;
; }else{
;
	jmp     L0A38
;
; update_list[3+i] = 0x60 + random;
;
L0B8F:	ldx     #$00
	lda     _i
	clc
	adc     #$03
	bcc     L0F28
	inx
	clc
L0F28:	adc     #<(_update_list)
	sta     ptr1
	txa
	adc     #>(_update_list)
	sta     ptr1+1
	lda     _temp1
	clc
	adc     #$60
	ldy     #$00
	sta     (ptr1),y
;
; }else{
;
	jmp     L0A38
;
; if((cell_index < 2 && neighbour_forest_count <= 1 && (rand8()&3)) || (rand8()&3) == 0){
;
L0B8B:	lda     _temp1
	cmp     #$02
	bcs     L0EFC
	lda     _temp2
	cmp     #$02
	bcs     L0EFC
	jsr     _rand8
	and     #$03
	bne     L0B9D
L0EFC:	jsr     _rand8
	and     #$03
	bne     L0B9C
;
; update_list[3+i] = 0xB8 + (rand8()&3);
;
L0B9D:	ldx     #$00
	lda     _i
	clc
	adc     #$03
	bcc     L0F29
	inx
	clc
L0F29:	adc     #<(_update_list)
	tay
	txa
	adc     #>(_update_list)
	tax
	tya
	jsr     pushax
	jsr     _rand8
	and     #$03
	clc
	adc     #$B8
;
; } else {
;
	jmp     L0F49
;
; update_list[3+i] = 0xA8 + (rand8()&3);
;
L0B9C:	ldx     #$00
	lda     _i
	clc
	adc     #$03
	bcc     L0F2A
	inx
	clc
L0F2A:	adc     #<(_update_list)
	tay
	txa
	adc     #>(_update_list)
	tax
	tya
	jsr     pushax
	jsr     _rand8
	and     #$03
	clc
	adc     #$A8
L0F49:	ldy     #$00
	jsr     staspidx
;
; for(i=0; i<32; i++){
;
L0A38:	lda     _i
	clc
	adc     #$01
	jmp     L0F4D
;
; if( (row_index&1) != 0){
;
L0A37:	lda     _temp0
	and     #$01
	jeq     L0BB2
;
; if(row_index == 29){
;
	lda     _temp0
	cmp     #$1D
	jne     L0BB6
;
; for(i=0;i<8;++i){
;
	lda     #$00
	sta     _i
L0BB8:	lda     _i
	cmp     #$08
	jcs     L0C03
;
; update_list[38+i] = (bg_colors[current_line[1 + (i<<1)]] | (bg_colors[current_line[1 + (i<<1)+1]]<<2));
;
	ldx     #$00
	lda     _i
	clc
	adc     #$26
	bcc     L0F2B
	inx
	clc
L0F2B:	adc     #<(_update_list)
	sta     ptr2
	txa
	adc     #>(_update_list)
	sta     ptr2+1
	ldx     #$00
	lda     _i
	asl     a
	bcc     L0F2C
	inx
	clc
L0F2C:	adc     #$01
	bcc     L0BC8
	inx
L0BC8:	sta     ptr1
	txa
	clc
	adc     #>(_current_line)
	sta     ptr1+1
	ldy     #<(_current_line)
	lda     (ptr1),y
	sta     ptr1
	lda     #$00
	clc
	adc     #>(_bg_colors)
	sta     ptr1+1
	ldy     #<(_bg_colors)
	lda     (ptr1),y
	sta     sreg
	ldx     #$00
	lda     _i
	asl     a
	bcc     L0F2D
	inx
	clc
L0F2D:	adc     #$01
	bcc     L0F2E
	inx
	clc
L0F2E:	adc     #$01
	bcc     L0BCE
	inx
L0BCE:	sta     ptr1
	txa
	clc
	adc     #>(_current_line)
	sta     ptr1+1
	ldy     #<(_current_line)
	lda     (ptr1),y
	sta     ptr1
	lda     #$00
	clc
	adc     #>(_bg_colors)
	sta     ptr1+1
	ldy     #<(_bg_colors)
	ldx     #$00
	lda     (ptr1),y
	jsr     aslax2
	ora     sreg
	ldy     #$00
	sta     (ptr2),y
;
; for(i=0;i<8;++i){
;
	inc     _i
	jmp     L0BB8
;
; }else if( (row_index&3) == 3 ){
;
L0BB6:	lda     _temp0
	and     #$03
	cmp     #$03
	jne     L0BD0
;
; for(i=0;i<8;++i){
;
	lda     #$00
	sta     _i
L0BD4:	lda     _i
	cmp     #$08
	jcs     L0C03
;
; update_list[38+i] = (bg_colors[current_line[1 + (i<<1)]] | (bg_colors[current_line[1 + (i<<1)+1]]<<2))<<4;
;
	ldx     #$00
	lda     _i
	clc
	adc     #$26
	bcc     L0F2F
	inx
	clc
L0F2F:	adc     #<(_update_list)
	sta     ptr2
	txa
	adc     #>(_update_list)
	sta     ptr2+1
	ldx     #$00
	lda     _i
	asl     a
	bcc     L0F30
	inx
	clc
L0F30:	adc     #$01
	bcc     L0BE4
	inx
L0BE4:	sta     ptr1
	txa
	clc
	adc     #>(_current_line)
	sta     ptr1+1
	ldy     #<(_current_line)
	lda     (ptr1),y
	sta     ptr1
	lda     #$00
	clc
	adc     #>(_bg_colors)
	sta     ptr1+1
	ldy     #<(_bg_colors)
	lda     (ptr1),y
	sta     sreg
	ldx     #$00
	lda     _i
	asl     a
	bcc     L0F31
	inx
	clc
L0F31:	adc     #$01
	bcc     L0F32
	inx
	clc
L0F32:	adc     #$01
	bcc     L0BEA
	inx
L0BEA:	sta     ptr1
	txa
	clc
	adc     #>(_current_line)
	sta     ptr1+1
	ldy     #<(_current_line)
	lda     (ptr1),y
	sta     ptr1
	lda     #$00
	clc
	adc     #>(_bg_colors)
	sta     ptr1+1
	ldy     #<(_bg_colors)
	ldx     #$00
	lda     (ptr1),y
	jsr     aslax2
	ora     sreg
	asl     a
	asl     a
	asl     a
	asl     a
	ldy     #$00
	sta     (ptr2),y
;
; for(i=0;i<8;++i){
;
	inc     _i
	jmp     L0BD4
;
; for(i=0;i<8;++i){
;
L0BD0:	lda     #$00
	sta     _i
L0BEC:	lda     _i
	cmp     #$08
	jcs     L0C03
;
; update_list[38+i] += (bg_colors[current_line[1 + (i<<1)]] | (bg_colors[current_line[1 + (i<<1)+1]]<<2));
;
	ldx     #$00
	lda     _i
	clc
	adc     #$26
	bcc     L0F33
	inx
	clc
L0F33:	adc     #<(_update_list)
	tay
	txa
	adc     #>(_update_list)
	tax
	tya
	jsr     pushax
	sta     ptr1
	stx     ptr1+1
	ldx     #$00
	lda     (ptr1,x)
	sta     ptr2
	lda     _i
	asl     a
	bcc     L0F34
	inx
	clc
L0F34:	adc     #$01
	bcc     L0BFC
	inx
L0BFC:	sta     ptr1
	txa
	clc
	adc     #>(_current_line)
	sta     ptr1+1
	ldy     #<(_current_line)
	lda     (ptr1),y
	sta     ptr1
	lda     #$00
	clc
	adc     #>(_bg_colors)
	sta     ptr1+1
	ldy     #<(_bg_colors)
	lda     (ptr1),y
	sta     sreg
	ldx     #$00
	lda     _i
	asl     a
	bcc     L0F35
	inx
	clc
L0F35:	adc     #$01
	bcc     L0F36
	inx
	clc
L0F36:	adc     #$01
	bcc     L0C02
	inx
L0C02:	sta     ptr1
	txa
	clc
	adc     #>(_current_line)
	sta     ptr1+1
	ldy     #<(_current_line)
	lda     (ptr1),y
	sta     ptr1
	lda     #$00
	clc
	adc     #>(_bg_colors)
	sta     ptr1+1
	ldy     #<(_bg_colors)
	ldx     #$00
	lda     (ptr1),y
	jsr     aslax2
	ora     sreg
	clc
	adc     ptr2
	ldy     #$00
	jsr     staspidx
;
; for(i=0;i<8;++i){
;
	inc     _i
	jmp     L0BEC
;
; current_line[1] = WALL;
;
L0BB2:	lda     #$01
	sta     _current_line+1
;
; current_line[16] = WALL;
;
	sta     _current_line+16
;
; scroll(0, scr);
;
L0C03:	jsr     push0
	lda     _scr
	ldx     _scr+1
	jmp     _scroll

.endproc

; ---------------------------------------------------------------
; void __near__ reset (void)
; ---------------------------------------------------------------

.segment	"CODE"

.proc	_reset: near

.segment	"CODE"

;
; craft_x[0]=78;
;
	lda     #$4E
	sta     _craft_x
;
; craft_y[0]=180;
;
	lda     #$B4
	sta     _craft_y
;
; craft_x[1]=178;
;
	lda     #$B2
	sta     _craft_x+1
;
; craft_y[1]=180;
;
	lda     #$B4
	sta     _craft_y+1
;
; wall_hit_x[0] = 255;
;
	lda     #$FF
	sta     _wall_hit_x
;
; wall_hit_x[1] = 255;
;
	sta     _wall_hit_x+1
;
; wall_hit_hp[0] = 0;
;
	lda     #$00
	sta     _wall_hit_hp
;
; wall_hit_hp[1] = 0;
;
	sta     _wall_hit_hp+1
;
; sprite_dirs[0] = DIR_UP;
;
	lda     #$01
	sta     _sprite_dirs
;
; sprite_dirs[1] = DIR_UP;
;
	sta     _sprite_dirs+1
;
; sprite_look_dirs[0] = 0;
;
	lda     #$00
	sta     _sprite_look_dirs
;
; sprite_look_dirs[1] = 0;
;
	sta     _sprite_look_dirs+1
;
; craft_types[0] = 0;
;
	sta     _craft_types
;
; craft_types[1] = 1;
;
	lda     #$01
	sta     _craft_types+1
;
; craft_bullet_timers[0] = 0;
;
	lda     #$00
	sta     _craft_bullet_timers
;
; craft_bullet_timers[1] = 0;
;
	sta     _craft_bullet_timers+1
;
; for(i=0; i<18; i++){
;
L0F8B:	sta     _i
	cmp     #$12
	bcs     L0C3F
;
; next_line[i] = current_line[i] = prev_line[i] = GRASS;
;
	lda     #<(_next_line)
	ldx     #>(_next_line)
	clc
	adc     _i
	bcc     L0C48
	inx
L0C48:	jsr     pushax
	lda     #<(_current_line)
	ldx     #>(_current_line)
	clc
	adc     _i
	bcc     L0C4B
	inx
L0C4B:	jsr     pushax
	ldy     _i
	lda     #$00
	sta     _prev_line,y
	tay
	jsr     staspidx
	tay
	jsr     staspidx
;
; for(i=0; i<18; i++){
;
	lda     _i
	clc
	adc     #$01
	jmp     L0F8B
;
; next_line[0] = next_line[1] = WALL;
;
L0C3F:	lda     #$01
	sta     _next_line+1
	sta     _next_line
;
; next_line[16] = next_line[17] = WALL;
;
	sta     _next_line+17
	sta     _next_line+16
;
; current_line[0] = WALL_GREEN;
;
	lda     #$03
	sta     _current_line
;
; current_line[1] = WALL;
;
	lda     #$01
	sta     _current_line+1
;
; current_line[16] = WALL;
;
	sta     _current_line+16
;
; current_line[17] = WALL_GREEN;
;
	lda     #$03
	sta     _current_line+17
;
; prev_line[0] = prev_line[1] = WALL;
;
	lda     #$01
	sta     _prev_line+1
	sta     _prev_line
;
; prev_line[16] = prev_line[17] = WALL;
;
	sta     _prev_line+17
	sta     _prev_line+16
;
; wall_count = 50;
;
	lda     #$32
	sta     _wall_count
;
; has_big_wall = 0;
;
	lda     #$00
	sta     _has_big_wall
;
; debug_info_val = 0;
;
	sta     $00FA
;
; break_points_enable_val = 0;
;
	sta     $00FB
;
; for(i=0; i<6; i++){
;
L0F8C:	sta     _i
	cmp     #$06
	bcs     L0C7B
;
; craft_flags[i] = 0;
;
	ldy     _i
	lda     #$00
	sta     _craft_flags,y
;
; for(i=0; i<6; i++){
;
	lda     _i
	clc
	adc     #$01
	jmp     L0F8C
;
; for(i=0; i<ENEMY_BULLET_COUNT; i++){
;
L0C7B:	lda     #$00
L0F8D:	sta     _i
	cmp     #$0C
	bcs     L0C87
;
; craft_bullet_y[i] = 255;
;
	ldy     _i
	lda     #$FF
	sta     _craft_bullet_y,y
;
; for(i=0; i<ENEMY_BULLET_COUNT; i++){
;
	lda     _i
	clc
	adc     #$01
	jmp     L0F8D
;
; for(i=0; i<15; i++){
;
L0C87:	lda     #$00
L0F8E:	sta     _i
	cmp     #$0F
	bcs     L0C93
;
; blocked[i] = 0;
;
	ldx     #$00
	lda     _i
	asl     a
	bcc     L0F89
	inx
	clc
L0F89:	adc     #<(_blocked)
	sta     ptr1
	txa
	adc     #>(_blocked)
	sta     ptr1+1
	lda     #$00
	tay
	sta     (ptr1),y
	iny
	sta     (ptr1),y
;
; bullet_blocked[i] = 0;
;
	tax
	lda     _i
	asl     a
	bcc     L0F8A
	inx
	clc
L0F8A:	adc     #<(_bullet_blocked)
	sta     ptr1
	txa
	adc     #>(_bullet_blocked)
	sta     ptr1+1
	lda     #$00
	dey
	sta     (ptr1),y
	iny
	sta     (ptr1),y
;
; for(i=0; i<15; i++){
;
	lda     _i
	clc
	adc     #$01
	jmp     L0F8E
;
; }
;
L0C93:	rts

.endproc

; ---------------------------------------------------------------
; void __near__ tick_enemies (void)
; ---------------------------------------------------------------

.segment	"CODE"

.proc	_tick_enemies: near

.segment	"CODE"

;
; for(i=2; i<6; i++){
;
	lda     #$02
L0F9C:	sta     _i
	cmp     #$06
	bcc     L0F9D
;
; }
;
	rts
;
; if(craft_types[i] == 255){
;
L0F9D:	ldy     _i
	lda     _craft_types,y
	cmp     #$FF
	jne     L0CA9
;
; if(enemy_spawn_scr == 0){
;
	lda     _enemy_spawn_scr
	jne     L0CDB
;
; enemy_spawn_scr = 32 + (rand8()&31);
;
	jsr     _rand8
	and     #$1F
	clc
	adc     #$20
	sta     _enemy_spawn_scr
;
; spawn_x = rand8()&15;
;
	jsr     _rand8
	and     #$0F
L0F92:	sta     _temp5
;
; while((blocked[0] & (1<<spawn_x))){
;
L0CB5:	lda     _blocked
	ldx     _blocked+1
	jsr     pushax
	lda     #$01
	jsr     pusha0
	lda     _temp5
	jsr     tosaslax
	jsr     tosandax
	stx     tmp1
	ora     tmp1
	beq     L0CB6
;
; spawn_x++;
;
	lda     _temp5
	clc
	adc     #$01
	sta     _temp5
;
; if(spawn_x == 16) spawn_x = 0;
;
	cmp     #$10
	bne     L0CB5
	lda     #$00
;
; }                    
;
	jmp     L0F92
;
; new_x = spawn_x*16 + (rand8()&7);
;
L0CB6:	tax
	lda     _temp5
	jsr     shlax4
	jsr     pushax
	jsr     _rand8
	and     #$07
	jsr     tosadda0
	sta     _temp2
;
; new_y = 0;
;
	lda     #$00
	sta     _temp3
;
; move_dir = DIR_DOWN;
;
	lda     #$02
	sta     _temp1
;
; sprite_look_dirs[i] = 0;
;
	ldy     _i
	lda     #$00
	sta     _sprite_look_dirs,y
;
; craft_types[i] = 1;
;
	ldy     _i
	lda     #$01
	sta     _craft_types,y
;
; craft_flags[i] = 15;
;
	ldy     _i
	lda     #$0F
	sta     _craft_flags,y
;
; craft_hps[i] = 2;
;
	ldy     _i
	lda     #$02
	sta     _craft_hps,y
;
; craft_bullet_timers[i] = rand8()&127;
;
	lda     #<(_craft_bullet_timers)
	ldx     #>(_craft_bullet_timers)
	clc
	adc     _i
	bcc     L0CD9
	inx
L0CD9:	jsr     pushax
	jsr     _rand8
	and     #$7F
	ldy     #$00
	jsr     staspidx
;
; else
;
	jmp     L0CDB
;
; move_dir = sprite_dirs[i];
;
L0CA9:	ldy     _i
	lda     _sprite_dirs,y
	sta     _temp1
;
; new_x = craft_x[i];
;
	ldy     _i
	lda     _craft_x,y
	sta     _temp2
;
; new_y = craft_y[i];
;
	ldy     _i
	lda     _craft_y,y
	sta     _temp3
;
; if((frame+i)&3){
;
	lda     _frame
	clc
	adc     _i
	and     #$03
	jeq     L0CE8
;
; if(frame&3){
;
	lda     _frame
	and     #$03
	beq     L0CF0
;
; if(move_dir&DIR_LEFT){
;
	lda     _temp1
	and     #$04
	beq     L0CED
;
; new_x--;
;
	lda     _temp2
	sec
	sbc     #$01
	sta     _temp2
;
; if(move_dir&DIR_RIGHT){
;
L0CED:	lda     _temp1
	and     #$08
	beq     L0CF0
;
; new_x++;
;
	lda     _temp2
	clc
	adc     #$01
	sta     _temp2
;
; if((frame&3) != 1){
;
L0CF0:	lda     _frame
	and     #$03
	cmp     #$01
	beq     L0CF3
;
; if(move_dir&DIR_UP){
;
	lda     _temp1
	and     #$01
	beq     L0CF7
;
; new_y--;
;
	lda     _temp3
	sec
	sbc     #$01
	sta     _temp3
;
; if(move_dir&DIR_DOWN){
;
L0CF7:	lda     _temp1
	and     #$02
	beq     L0CF3
;
; new_y++;
;
	lda     _temp3
	clc
	adc     #$01
	sta     _temp3
;
; move_reset = craft_flags[i]&15;
;
L0CF3:	ldy     _i
	lda     _craft_flags,y
	and     #$0F
	sta     _temp4
;
; if(move_reset && (frame & 7) == 0){
;
	lda     _temp4
	beq     L0D01
	lda     _frame
	and     #$07
	bne     L0D01
;
; craft_flags[i]--;
;
	lda     #<(_craft_flags)
	ldx     #>(_craft_flags)
	clc
	adc     _i
	bcc     L0D09
	inx
L0D09:	sta     sreg
	stx     sreg+1
	sta     ptr1
	stx     ptr1+1
	ldy     #$00
	lda     (ptr1),y
	sec
	sbc     #$01
	sta     (sreg),y
;
; if(move_reset == 0 || (new_y < 20 && move_dir == DIR_UP) || (new_y > 220 && move_dir == DIR_DOWN)|| isFreeIn(new_x, new_y) == FALSE){
;
L0D01:	lda     _temp4
	beq     L0D0B
	lda     _temp3
	cmp     #$14
	bcs     L0F90
	lda     _temp1
	cmp     #$01
	beq     L0D0B
L0F90:	lda     _temp3
	cmp     #$DD
	bcc     L0F91
	lda     _temp1
	cmp     #$02
	beq     L0D0B
L0F91:	ldx     #$00
	lda     _scr
	and     #$0F
	clc
	adc     _temp3
	bcc     L0F94
	inx
L0F94:	jsr     shrax4
	stx     tmp1
	asl     a
	rol     tmp1
	clc
	adc     #<(_blocked)
	sta     ptr1
	lda     tmp1
	adc     #>(_blocked)
	sta     ptr1+1
	ldy     #$01
	lda     (ptr1),y
	tax
	dey
	lda     (ptr1),y
	jsr     pushax
	lda     #$01
	jsr     pusha0
	lda     _temp2
	jsr     asrax4
	jsr     tosaslax
	jsr     tosandax
	jsr     bnegax
	cpx     #$00
	jne     L0CE8
	cmp     #$00
	jne     L0CE8
;
; new_x = craft_x[i];
;
L0D0B:	ldy     _i
	lda     _craft_x,y
	sta     _temp2
;
; new_y = craft_y[i];
;
	ldy     _i
	lda     _craft_y,y
	sta     _temp3
;
; if(isFreeIn(new_x, new_y-1) == FALSE){
;
	ldx     #$00
	lda     _temp3
	sec
	sbc     #$01
	bcs     L0D27
	dex
L0D27:	sta     ptr1
	stx     ptr1+1
	lda     _scr
	and     #$0F
	clc
	adc     ptr1
	ldx     ptr1+1
	bcc     L0F95
	inx
L0F95:	jsr     shrax4
	stx     tmp1
	asl     a
	rol     tmp1
	clc
	adc     #<(_blocked)
	sta     ptr1
	lda     tmp1
	adc     #>(_blocked)
	sta     ptr1+1
	ldy     #$01
	lda     (ptr1),y
	tax
	dey
	lda     (ptr1),y
	jsr     pushax
	lda     #$01
	jsr     pusha0
	lda     _temp2
	jsr     asrax4
	jsr     tosaslax
	jsr     tosandax
	jsr     bnegax
	cpx     #$00
	bne     L0D22
	cmp     #$00
	bne     L0D22
;
; move_dir |= DIR_UP;
;
	lda     _temp1
	ora     #$01
	sta     _temp1
;
; if(isFreeIn(new_x, new_y+1) == FALSE){
;
L0D22:	ldx     #$00
	lda     _temp3
	clc
	adc     #$01
	bcc     L0D33
	inx
L0D33:	sta     ptr1
	stx     ptr1+1
	lda     _scr
	and     #$0F
	clc
	adc     ptr1
	ldx     ptr1+1
	bcc     L0F96
	inx
L0F96:	jsr     shrax4
	stx     tmp1
	asl     a
	rol     tmp1
	clc
	adc     #<(_blocked)
	sta     ptr1
	lda     tmp1
	adc     #>(_blocked)
	sta     ptr1+1
	ldy     #$01
	lda     (ptr1),y
	tax
	dey
	lda     (ptr1),y
	jsr     pushax
	lda     #$01
	jsr     pusha0
	lda     _temp2
	jsr     asrax4
	jsr     tosaslax
	jsr     tosandax
	jsr     bnegax
	cpx     #$00
	bne     L0D2E
	cmp     #$00
	bne     L0D2E
;
; move_dir |= DIR_DOWN;
;
	lda     _temp1
	ora     #$02
	sta     _temp1
;
; if(isFreeIn(new_x-1, new_y) == FALSE){
;
L0D2E:	ldx     #$00
	lda     _scr
	and     #$0F
	clc
	adc     _temp3
	bcc     L0F97
	inx
L0F97:	jsr     shrax4
	stx     tmp1
	asl     a
	rol     tmp1
	clc
	adc     #<(_blocked)
	sta     ptr1
	lda     tmp1
	adc     #>(_blocked)
	sta     ptr1+1
	ldy     #$01
	lda     (ptr1),y
	tax
	dey
	lda     (ptr1),y
	jsr     pushax
	lda     #$01
	jsr     pusha0
	lda     _temp2
	sec
	sbc     #$01
	bcs     L0D42
	ldx     #$FF
L0D42:	jsr     shrax4
	jsr     tosaslax
	jsr     tosandax
	jsr     bnegax
	cpx     #$00
	bne     L0D3A
	cmp     #$00
	bne     L0D3A
;
; move_dir |= DIR_LEFT;
;
	lda     _temp1
	ora     #$04
	sta     _temp1
;
; if(isFreeIn(new_x+1, new_y) == FALSE){
;
L0D3A:	ldx     #$00
	lda     _scr
	and     #$0F
	clc
	adc     _temp3
	bcc     L0F98
	inx
L0F98:	jsr     shrax4
	stx     tmp1
	asl     a
	rol     tmp1
	clc
	adc     #<(_blocked)
	sta     ptr1
	lda     tmp1
	adc     #>(_blocked)
	sta     ptr1+1
	ldy     #$01
	lda     (ptr1),y
	tax
	dey
	lda     (ptr1),y
	jsr     pushax
	lda     #$01
	jsr     pusha0
	lda     _temp2
	clc
	adc     #$01
	bcc     L0D4E
	ldx     #$01
L0D4E:	jsr     shrax4
	jsr     tosaslax
	jsr     tosandax
	jsr     bnegax
	cpx     #$00
	bne     L0D46
	cmp     #$00
	bne     L0D46
;
; move_dir |= DIR_RIGHT;
;
	lda     _temp1
	ora     #$08
	sta     _temp1
;
; if(new_y < 20){
;
L0D46:	lda     _temp3
	cmp     #$14
	bcs     L0D52
;
; move_dir |= DIR_UP;
;
	lda     _temp1
	ora     #$01
	sta     _temp1
;
; if(new_y > 220){
;
L0D52:	lda     _temp3
	cmp     #$DD
	bcc     L0D56
;
; move_dir |= DIR_DOWN;
;
	lda     _temp1
	ora     #$02
	sta     _temp1
;
; craft_flags[i] = (craft_flags[i]&0xF0) + 4 + (rand8()&11);
;
L0D56:	lda     #<(_craft_flags)
	ldx     #>(_craft_flags)
	clc
	adc     _i
	bcc     L0D5C
	inx
L0D5C:	jsr     pushax
	ldy     _i
	lda     _craft_flags,y
	ldx     #$00
	and     #$F0
	clc
	adc     #$04
	bcc     L0D61
	inx
L0D61:	jsr     pushax
	jsr     _rand8
	and     #$0B
	jsr     tosadda0
	ldy     #$00
	jsr     staspidx
;
; if(move_dir == 0xF){
;
	lda     _temp1
	cmp     #$0F
	bne     L0D63
;
; craft_types[i] = 255;
;
	ldy     _i
	lda     #$FF
	sta     _craft_types,y
;
; continue;
;
	jmp     L0CA3
;
; }else if(move_dir == 0){
;
L0D63:	lda     _temp1
	bne     L0D6A
;
; move_dir = (1<<(rand8()&3));
;
	lda     #$01
	jsr     pusha0
	jsr     _rand8
	and     #$03
	jsr     tosaslax
;
; } else {
;
	jmp     L0F93
;
; move_dir = rand8()&3;
;
L0D6A:	jsr     _rand8
	and     #$03
	sta     _temp1
;
; sprite_dirs[i] = (1<<(rand8()&3));
;
L0D73:	lda     #<(_sprite_dirs)
	ldx     #>(_sprite_dirs)
	clc
	adc     _i
	bcc     L0D78
	inx
L0D78:	jsr     pushax
	lda     #$01
	jsr     pusha0
	jsr     _rand8
	and     #$03
	jsr     tosaslax
	ldy     #$00
	jsr     staspidx
;
; }while(sprite_dirs[i]&move_dir);
;
	ldy     _i
	lda     _sprite_dirs,y
	sta     ptr1
	lda     _temp1
	and     ptr1
	pha
	pla
	bne     L0D73
;
; move_dir = sprite_dirs[i];
;
	ldy     _i
	lda     _sprite_dirs,y
L0F93:	sta     _temp1
;
; if(craft_bullet_timers[i])
;
L0CE8:	ldy     _i
	lda     _craft_bullet_timers,y
	beq     L0D83
;
; craft_bullet_timers[i]--;
;
	lda     #<(_craft_bullet_timers)
	ldx     #>(_craft_bullet_timers)
	clc
	adc     _i
	bcc     L0D89
	inx
L0D89:	sta     sreg
	stx     sreg+1
	sta     ptr1
	stx     ptr1+1
	ldy     #$00
	lda     (ptr1),y
	sec
	sbc     #$01
	sta     (sreg),y
;
; if(craft_bullet_timers[i] == 0)
;
L0D83:	ldy     _i
	lda     _craft_bullet_timers,y
	jne     L0D8F
;
; for(j=CRAFT_BULLET_COUNT; j < ENEMY_BULLET_COUNT; j++){
;
	lda     #$08
L0F9A:	sta     _j
	cmp     #$0C
	bcs     L0D8F
;
; if(craft_bullet_y[j] != 255) continue;
;
	ldy     _j
	lda     _craft_bullet_y,y
	cmp     #$FF
	bne     L0D90
;
; craft_bullet_x[j] = craft_x[i];
;
	lda     #<(_craft_bullet_x)
	ldx     #>(_craft_bullet_x)
	clc
	adc     _j
	bcc     L0D9C
	inx
L0D9C:	sta     ptr1
	stx     ptr1+1
	ldy     _i
	lda     _craft_x,y
	ldy     #$00
	sta     (ptr1),y
;
; craft_bullet_y[j] = craft_y[i];
;
	lda     #<(_craft_bullet_y)
	ldx     #>(_craft_bullet_y)
	clc
	adc     _j
	bcc     L0DA2
	inx
L0DA2:	sta     ptr1
	stx     ptr1+1
	ldy     _i
	lda     _craft_y,y
	ldy     #$00
	sta     (ptr1),y
;
; craft_bullet_flag[j] = sprite_dirs[i];
;
	lda     #<(_craft_bullet_flag)
	ldx     #>(_craft_bullet_flag)
	clc
	adc     _j
	bcc     L0DA8
	inx
L0DA8:	sta     ptr1
	stx     ptr1+1
	ldy     _i
	lda     _sprite_dirs,y
	ldy     #$00
	sta     (ptr1),y
;
; craft_bullet_timers[i] = 64 + (rand8()&127);
;
	lda     #<(_craft_bullet_timers)
	ldx     #>(_craft_bullet_timers)
	clc
	adc     _i
	bcc     L0DAE
	inx
L0DAE:	jsr     pushax
	jsr     _rand8
	and     #$7F
	clc
	adc     #$40
	ldy     #$00
	jsr     staspidx
;
; break;
;
	jmp     L0D8F
;
; for(j=CRAFT_BULLET_COUNT; j < ENEMY_BULLET_COUNT; j++){
;
L0D90:	lda     _j
	clc
	adc     #$01
	jmp     L0F9A
;
; if(new_y >= MAX_Y-1 || craft_hps[i] == 0){
;
L0D8F:	lda     _temp3
	cmp     #$DC
	bcs     L0DB3
	ldy     _i
	lda     _craft_hps,y
	bne     L0DB2
;
; craft_types[i] = 255;
;
L0DB3:	ldy     _i
	lda     #$FF
	sta     _craft_types,y
;
; continue;
;
	jmp     L0CA3
;
; for(j=0; j<2; j++){
;
L0DB2:	lda     #$00
L0F9B:	sta     _j
	cmp     #$02
	jcs     L0CDB
;
; if(craft_lives[j] != 0){
;
	ldy     _j
	lda     _craft_lives,y
	jeq     L0DBE
;
; if(new_x > craft_x[j]-12 && new_x < craft_x[j]+12 && new_y > craft_y[j]-12 && new_y < craft_y[j]+12){
;
	lda     _temp2
	jsr     pusha0
	ldy     _j
	lda     _craft_x,y
	sec
	sbc     #$0C
	bcs     L0DCC
	ldx     #$FF
L0DCC:	jsr     tosicmp
	bcc     L0DBE
	beq     L0DBE
	lda     _temp2
	jsr     pusha0
	ldy     _j
	lda     _craft_x,y
	clc
	adc     #$0C
	bcc     L0DD0
	ldx     #$01
L0DD0:	jsr     tosicmp
	bcs     L0DBE
	lda     _temp3
	jsr     pusha0
	ldy     _j
	lda     _craft_y,y
	sec
	sbc     #$0C
	bcs     L0DD3
	ldx     #$FF
L0DD3:	jsr     tosicmp
	bcc     L0DBE
	beq     L0DBE
	lda     _temp3
	jsr     pusha0
	ldy     _j
	lda     _craft_y,y
	clc
	adc     #$0C
	bcc     L0DD6
	ldx     #$01
L0DD6:	jsr     tosicmp
	bcs     L0DBE
;
; damage_craft(j, 2);
;
	jsr     decsp2
	lda     _j
	ldy     #$01
	sta     (sp),y
	lda     #$02
	dey
	sta     (sp),y
	jsr     _damage_craft
;
; craft_types[i] = 255;
;
	ldy     _i
	lda     #$FF
	sta     _craft_types,y
;
; break;
;
	jmp     L0CDB
;
; for(j=0; j<2; j++){
;
L0DBE:	lda     _j
	clc
	adc     #$01
	jmp     L0F9B
;
; craft_x[i] = new_x;
;
L0CDB:	ldy     _i
	lda     _temp2
	sta     _craft_x,y
;
; craft_y[i] = new_y;
;
	ldy     _i
	lda     _temp3
	sta     _craft_y,y
;
; sprite_dirs[i] = move_dir;
;
	ldy     _i
	lda     _temp1
	sta     _sprite_dirs,y
;
; for(i=2; i<6; i++){
;
L0CA3:	lda     _i
	clc
	adc     #$01
	jmp     L0F9C

.endproc

; ---------------------------------------------------------------
; void __near__ check_pause (void)
; ---------------------------------------------------------------

.segment	"CODE"

.proc	_check_pause: near

.segment	"CODE"

;
; if((pad_poll(0)|pad_poll(1)) & PAD_START){
;
	lda     #$00
	jsr     _pad_poll
	jsr     pushax
	lda     #$01
	jsr     _pad_poll
	jsr     tosorax
	and     #$08
	bne     L0FA1
;
; }
;
	rts
;
; alpha = 4;
;
L0FA1:	lda     #$04
	sta     _temp0
;
; while(alpha>0){
;
L0DF3:	lda     _temp0
	beq     L0DF4
;
; alpha--;
;
	lda     _temp0
	sec
	sbc     #$01
	sta     _temp0
;
; pal_bright(alpha);
;
	jsr     _pal_bright
;
; remaining_frame = 3;
;
	lda     #$03
	sta     _temp1
;
; while(remaining_frame--){
;
L0DFB:	lda     _temp1
	pha
	sec
	sbc     #$01
	sta     _temp1
	pla
	tax
	beq     L0DF3
;
; ppu_wait_frame();
;
	jsr     _ppu_wait_frame
;
; }
;
	jmp     L0DFB
;
; oam_clear();
;
L0DF4:	jsr     _oam_clear
;
; spr=0;
;
	lda     #$00
	sta     _spr
;
; for(i=0; i<7; i++){
;
L0FA0:	sta     _i
	cmp     #$07
	bcs     L0E03
;
; spr=oam_spr(100+(i<<3), 100, 0xF2+(i<<1), 3, spr);
;
	jsr     decsp4
	ldx     #$00
	lda     _i
	jsr     aslax3
	clc
	adc     #$64
	ldy     #$03
	sta     (sp),y
	lda     #$64
	dey
	sta     (sp),y
	lda     _i
	asl     a
	bcc     L0F9F
	clc
L0F9F:	adc     #$F2
	dey
	sta     (sp),y
	lda     #$03
	dey
	sta     (sp),y
	lda     _spr
	jsr     _oam_spr
	sta     _spr
;
; for(i=0; i<7; i++){
;
	lda     _i
	clc
	adc     #$01
	jmp     L0FA0
;
; alpha = 0;
;
L0E03:	lda     #$00
	sta     _temp0
;
; while(alpha<4){
;
L0E17:	lda     _temp0
	cmp     #$04
	bcs     L0E18
;
; alpha++;
;
	lda     _temp0
	clc
	adc     #$01
	sta     _temp0
;
; pal_spr_bright(alpha);
;
	jsr     _pal_spr_bright
;
; remaining_frame = 3;
;
	lda     #$03
	sta     _temp1
;
; while(remaining_frame--){
;
L0E1F:	lda     _temp1
	pha
	sec
	sbc     #$01
	sta     _temp1
	pla
	tax
	beq     L0E17
;
; ppu_wait_frame();
;
	jsr     _ppu_wait_frame
;
; }
;
	jmp     L0E1F
;
; ppu_wait_frame();
;
L0E18:	jsr     _ppu_wait_frame
;
; if((pad_poll(0)|pad_poll(1)) & PAD_START) break;
;
	lda     #$00
	jsr     _pad_poll
	jsr     pushax
	lda     #$01
	jsr     _pad_poll
	jsr     tosorax
	and     #$08
	beq     L0E18
;
; alpha = 4;
;
	lda     #$04
	sta     _temp0
;
; while(alpha>0){
;
L0E2E:	lda     _temp0
	beq     L0E2F
;
; alpha--;
;
	lda     _temp0
	sec
	sbc     #$01
	sta     _temp0
;
; pal_spr_bright(alpha);
;
	jsr     _pal_spr_bright
;
; remaining_frame = 3;
;
	lda     #$03
	sta     _temp1
;
; while(remaining_frame--){
;
L0E36:	lda     _temp1
	pha
	sec
	sbc     #$01
	sta     _temp1
	pla
	tax
	beq     L0E2E
;
; ppu_wait_frame();
;
	jsr     _ppu_wait_frame
;
; }
;
	jmp     L0E36
;
; oam_clear();
;
L0E2F:	jsr     _oam_clear
;
; spr=0;
;
	lda     #$00
	sta     _spr
;
; draw_all();
;
	jsr     _draw_all
;
; alpha = 0;
;
	lda     #$00
	sta     _temp0
;
; while(alpha<4){
;
L0E40:	lda     _temp0
	cmp     #$04
	bcs     L0E41
;
; alpha++;
;
	lda     _temp0
	clc
	adc     #$01
	sta     _temp0
;
; pal_bright(alpha);
;
	jsr     _pal_bright
;
; remaining_frame = 3;
;
	lda     #$03
	sta     _temp1
;
; while(remaining_frame--){
;
L0E48:	lda     _temp1
	pha
	sec
	sbc     #$01
	sta     _temp1
	pla
	tax
	beq     L0E40
;
; ppu_wait_frame();
;
	jsr     _ppu_wait_frame
;
; }
;
	jmp     L0E48
;
; }
;
L0E41:	rts

.endproc

; ---------------------------------------------------------------
; void __near__ main (void)
; ---------------------------------------------------------------

.segment	"CODE"

.proc	_main: near

.segment	"CODE"

;
; init();
;
	jsr     _init
;
; reset();
;
	jsr     _reset
;
; menu();
;
	jsr     _menu
;
; oam_clear();
;
	jsr     _oam_clear
;
; while(scr!=240){
;
L0E51:	lda     _scr+1
	bne     L0FA2
	lda     _scr
	cmp     #$F0
	beq     L0E52
;
; ppu_wait_frame();
;
L0FA2:	jsr     _ppu_wait_frame
;
; temp1 = 4;
;
	lda     #$04
	sta     _temp1
;
; scroll_screen();
;
	jsr     _scroll_screen
;
; ++frame;
;
	inc     _frame
;
; }
;
	jmp     L0E51
;
; temp5 = 0;
;
L0E52:	lda     #$00
	sta     _temp5
;
; craft_x[0]=78;
;
	lda     #$4E
	sta     _craft_x
;
; craft_y[0]=200;
;
	lda     #$C8
	sta     _craft_y
;
; craft_x[1]=178;
;
	lda     #$B2
	sta     _craft_x+1
;
; craft_y[1]=200;
;
	lda     #$C8
	sta     _craft_y+1
;
; craft_types[2] = 255;
;
	lda     #$FF
	sta     _craft_types+2
;
; craft_types[3] = 255;
;
	sta     _craft_types+3
;
; craft_types[4] = 255;
;
	sta     _craft_types+4
;
; craft_types[5] = 255;
;
	sta     _craft_types+5
;
; craft_hps[0] = 8;
;
	lda     #$08
	sta     _craft_hps
;
; craft_hps[1] = 8;
;
	sta     _craft_hps+1
;
; enemy_spawn_scr = 10;
;
	lda     #$0A
	sta     _enemy_spawn_scr
;
; ppu_wait_frame();
;
L0E7C:	jsr     _ppu_wait_frame
;
; oam_clear();
;
	jsr     _oam_clear
;
; spr=0;
;
	lda     #$00
	sta     _spr
;
; tick_crafts();
;
	jsr     _tick_crafts
;
; tick_enemies();
;
	jsr     _tick_enemies
;
; tick_bullets();
;
	jsr     _tick_bullets
;
; draw_all();
;
	jsr     _draw_all
;
; temp1 = 0;
;
	lda     #$00
	sta     _temp1
;
; if(craft_lives[0] && craft_y[0] < 150) temp1 = 150-craft_y[0];
;
	lda     _craft_lives
	beq     L0E89
	lda     _craft_y
	cmp     #$96
	bcs     L0E89
	lda     #$96
	sec
	sbc     _craft_y
	sta     _temp1
;
; if(craft_lives[1] && craft_y[1] < 150){
;
L0E89:	lda     _craft_lives+1
	beq     L0E9B
	lda     _craft_y+1
	cmp     #$96
	bcs     L0E9B
;
; temp2 = 150-craft_y[1];
;
	lda     #$96
	sec
	sbc     _craft_y+1
	sta     _temp2
;
; if(temp2 > temp1){
;
	sec
	sbc     _temp1
	bcc     L0E9B
	beq     L0E9B
;
; temp1 = temp2;
;
	lda     _temp2
	sta     _temp1
;
; scroll_screen();
;
L0E9B:	jsr     _scroll_screen
;
; check_pause();
;
	jsr     _check_pause
;
; ++frame;
;
	inc     _frame
;
; }
;
	jmp     L0E7C

.endproc

