;
; File generated by cc65 v 2.13.3
;
	.fopt		compiler,"cc65 v 2.13.3"
	.setcpu		"6502"
	.smart		on
	.autoimport	on
	.case		on
	.debuginfo	off
	.importzp	sp, sreg, regsave, regbank, tmp1, ptr1, ptr2
	.macpack	longbranch
	.forceimport	__STARTUP__
	.import		_pal_all
	.import		_pal_bright
	.import		_pal_spr_bright
	.import		_ppu_wait_frame
	.import		_ppu_on_all
	.import		_oam_clear
	.import		_oam_size
	.import		_oam_spr
	.import		_pad_poll
	.import		_scroll
	.import		_bank_spr
	.import		_bank_bg
	.import		_rand8
	.import		_rand16
	.import		_set_rand
	.import		_set_vram_update
	.import		_vram_adr
	.import		_vram_unrle
	.export		_palette
	.export		_menu_data
	.export		_isCellBulletFree
	.export		_isFreeIn
	.export		_isFree
	.export		_damage_craft
	.export		_menu
	.export		_draw_tank
	.export		_draw_all
	.export		_init
	.export		_tick_bullets
	.export		_tick_crafts
	.export		_scroll_screen
	.export		_reset
	.export		_tick_enemies
	.export		_check_pause
	.export		_main

.segment	"DATA"

.segment	"ZEROPAGE"
.segment	"BSS"
.segment	"ZEROPAGE"
_blocked:
	.word	$0000
	.res	28,$00
_bullet_blocked:
	.word	$0000
	.res	28,$00
.segment	"BSS"
_sprite_dirs:
	.byte	$01
	.byte	$01
	.byte	$04
	.byte	$04
	.byte	$04
	.byte	$04
_sprite_look_dirs:
	.byte	$00
	.byte	$00
	.byte	$00
	.byte	$00
	.byte	$00
	.byte	$00
_craft_types:
	.byte	$00
	.byte	$01
	.byte	$01
	.byte	$01
	.byte	$01
	.byte	$01
_craft_hps:
	.byte	$00
	.byte	$01
	.byte	$01
	.byte	$01
	.byte	$01
	.byte	$01
_craft_flags:
	.byte	$00
	.byte	$00
	.byte	$00
	.byte	$00
	.byte	$00
	.byte	$00
_craft_lives:
	.byte	$03
	.byte	$03
_craft_bullet_y:
	.byte	$FF
	.res	11,$00
_craft_bullet_timers:
	.byte	$00
	.byte	$00
	.res	4,$00
_scr:
	.word	$0000
_last_row_index:
	.word	$0000
_adr:
	.word	$0000
_next_line:
	.byte	$00
	.res	17,$00
_current_line:
	.byte	$00
	.res	17,$00
_prev_line:
	.byte	$00
	.res	17,$00

.segment	"RODATA"

_palette:
	.byte	$29
	.byte	$27
	.byte	$17
	.byte	$07
	.byte	$29
	.byte	$27
	.byte	$19
	.byte	$18
	.byte	$29
	.byte	$0F
	.byte	$2D
	.byte	$3D
	.byte	$29
	.byte	$21
	.byte	$1C
	.byte	$0F
	.byte	$29
	.byte	$37
	.byte	$26
	.byte	$17
	.byte	$29
	.byte	$31
	.byte	$22
	.byte	$11
	.byte	$29
	.byte	$33
	.byte	$23
	.byte	$13
	.byte	$29
	.byte	$0F
	.byte	$30
	.byte	$30
_bg_colors:
	.byte	$01
	.byte	$00
	.byte	$03
	.byte	$01
	.byte	$01
	.byte	$00
_water_tiles:
	.byte	$BD
	.byte	$8C
	.byte	$AC
	.byte	$DC
	.byte	$BF
	.byte	$8C
	.byte	$9C
	.byte	$DF
	.byte	$BC
	.byte	$7C
	.byte	$AC
	.byte	$DD
	.byte	$BE
	.byte	$7C
	.byte	$9C
	.byte	$DE
_wall_tiles:
	.byte	$80
	.byte	$84
	.byte	$90
	.byte	$99
	.byte	$82
	.byte	$84
	.byte	$A0
	.byte	$98
	.byte	$70
	.byte	$74
	.byte	$90
	.byte	$9B
	.byte	$72
	.byte	$74
	.byte	$A0
	.byte	$9A
_menu_data:
	.byte	$02
	.byte	$68
	.byte	$A2
	.byte	$64
	.byte	$00
	.byte	$00
	.byte	$66
	.byte	$00
	.byte	$02
	.byte	$07
	.byte	$70
	.byte	$74
	.byte	$77
	.byte	$73
	.byte	$00
	.byte	$02
	.byte	$03
	.byte	$67
	.byte	$00
	.byte	$02
	.byte	$06
	.byte	$92
	.byte	$00
	.byte	$00
	.byte	$A1
	.byte	$00
	.byte	$68
	.byte	$00
	.byte	$02
	.byte	$09
	.byte	$81
	.byte	$86
	.byte	$84
	.byte	$82
	.byte	$00
	.byte	$02
	.byte	$03
	.byte	$69
	.byte	$00
	.byte	$69
	.byte	$68
	.byte	$00
	.byte	$02
	.byte	$03
	.byte	$90
	.byte	$00
	.byte	$00
	.byte	$A1
	.byte	$00
	.byte	$02
	.byte	$02
	.byte	$67
	.byte	$00
	.byte	$02
	.byte	$04
	.byte	$67
	.byte	$00
	.byte	$02
	.byte	$0A
	.byte	$63
	.byte	$00
	.byte	$00
	.byte	$70
	.byte	$77
	.byte	$74
	.byte	$76
	.byte	$9B
	.byte	$00
	.byte	$68
	.byte	$A2
	.byte	$63
	.byte	$00
	.byte	$00
	.byte	$68
	.byte	$00
	.byte	$02
	.byte	$13
	.byte	$90
	.byte	$00
	.byte	$02
	.byte	$05
	.byte	$A1
	.byte	$00
	.byte	$68
	.byte	$00
	.byte	$61
	.byte	$28
	.byte	$02
	.byte	$13
	.byte	$93
	.byte	$00
	.byte	$02
	.byte	$05
	.byte	$A2
	.byte	$63
	.byte	$00
	.byte	$00
	.byte	$64
	.byte	$28
	.byte	$5A
	.byte	$5B
	.byte	$02
	.byte	$0F
	.byte	$5C
	.byte	$28
	.byte	$91
	.byte	$00
	.byte	$65
	.byte	$00
	.byte	$00
	.byte	$68
	.byte	$00
	.byte	$A2
	.byte	$00
	.byte	$02
	.byte	$03
	.byte	$28
	.byte	$5F
	.byte	$5D
	.byte	$02
	.byte	$0F
	.byte	$5E
	.byte	$28
	.byte	$9B
	.byte	$68
	.byte	$00
	.byte	$02
	.byte	$04
	.byte	$A3
	.byte	$00
	.byte	$02
	.byte	$03
	.byte	$28
	.byte	$5F
	.byte	$5D
	.byte	$02
	.byte	$0F
	.byte	$5E
	.byte	$28
	.byte	$00
	.byte	$02
	.byte	$04
	.byte	$69
	.byte	$00
	.byte	$A0
	.byte	$00
	.byte	$64
	.byte	$00
	.byte	$00
	.byte	$28
	.byte	$5F
	.byte	$5D
	.byte	$2D
	.byte	$2E
	.byte	$2F
	.byte	$30
	.byte	$31
	.byte	$32
	.byte	$33
	.byte	$34
	.byte	$35
	.byte	$36
	.byte	$37
	.byte	$38
	.byte	$39
	.byte	$3A
	.byte	$5D
	.byte	$5E
	.byte	$28
	.byte	$00
	.byte	$02
	.byte	$06
	.byte	$A3
	.byte	$00
	.byte	$00
	.byte	$62
	.byte	$00
	.byte	$28
	.byte	$5F
	.byte	$5D
	.byte	$3B
	.byte	$3C
	.byte	$3D
	.byte	$3E
	.byte	$3F
	.byte	$40
	.byte	$41
	.byte	$42
	.byte	$43
	.byte	$44
	.byte	$45
	.byte	$46
	.byte	$47
	.byte	$48
	.byte	$5D
	.byte	$5E
	.byte	$28
	.byte	$00
	.byte	$02
	.byte	$06
	.byte	$A3
	.byte	$00
	.byte	$02
	.byte	$03
	.byte	$28
	.byte	$5F
	.byte	$5D
	.byte	$02
	.byte	$0F
	.byte	$5E
	.byte	$28
	.byte	$00
	.byte	$66
	.byte	$00
	.byte	$02
	.byte	$04
	.byte	$A0
	.byte	$00
	.byte	$02
	.byte	$03
	.byte	$28
	.byte	$5F
	.byte	$5D
	.byte	$02
	.byte	$03
	.byte	$49
	.byte	$4A
	.byte	$4B
	.byte	$4C
	.byte	$4B
	.byte	$4C
	.byte	$4D
	.byte	$4E
	.byte	$5D
	.byte	$02
	.byte	$03
	.byte	$5E
	.byte	$28
	.byte	$85
	.byte	$87
	.byte	$02
	.byte	$02
	.byte	$99
	.byte	$00
	.byte	$00
	.byte	$A3
	.byte	$00
	.byte	$02
	.byte	$03
	.byte	$28
	.byte	$5F
	.byte	$5D
	.byte	$02
	.byte	$03
	.byte	$4F
	.byte	$50
	.byte	$51
	.byte	$52
	.byte	$51
	.byte	$53
	.byte	$54
	.byte	$55
	.byte	$5D
	.byte	$02
	.byte	$03
	.byte	$5E
	.byte	$28
	.byte	$00
	.byte	$02
	.byte	$03
	.byte	$90
	.byte	$00
	.byte	$00
	.byte	$A3
	.byte	$00
	.byte	$02
	.byte	$03
	.byte	$28
	.byte	$5F
	.byte	$5D
	.byte	$02
	.byte	$03
	.byte	$56
	.byte	$02
	.byte	$02
	.byte	$5D
	.byte	$56
	.byte	$5D
	.byte	$56
	.byte	$5D
	.byte	$02
	.byte	$04
	.byte	$5E
	.byte	$28
	.byte	$00
	.byte	$02
	.byte	$02
	.byte	$60
	.byte	$93
	.byte	$00
	.byte	$00
	.byte	$A0
	.byte	$00
	.byte	$00
	.byte	$71
	.byte	$72
	.byte	$28
	.byte	$5F
	.byte	$5D
	.byte	$02
	.byte	$0F
	.byte	$5E
	.byte	$28
	.byte	$00
	.byte	$02
	.byte	$03
	.byte	$93
	.byte	$67
	.byte	$68
	.byte	$A2
	.byte	$00
	.byte	$00
	.byte	$92
	.byte	$A0
	.byte	$28
	.byte	$57
	.byte	$58
	.byte	$02
	.byte	$0F
	.byte	$59
	.byte	$28
	.byte	$00
	.byte	$00
	.byte	$62
	.byte	$00
	.byte	$93
	.byte	$00
	.byte	$00
	.byte	$9A
	.byte	$75
	.byte	$77
	.byte	$9B
	.byte	$A3
	.byte	$28
	.byte	$02
	.byte	$13
	.byte	$00
	.byte	$00
	.byte	$61
	.byte	$00
	.byte	$92
	.byte	$00
	.byte	$02
	.byte	$03
	.byte	$98
	.byte	$85
	.byte	$82
	.byte	$28
	.byte	$02
	.byte	$13
	.byte	$65
	.byte	$00
	.byte	$00
	.byte	$60
	.byte	$90
	.byte	$00
	.byte	$02
	.byte	$02
	.byte	$68
	.byte	$A1
	.byte	$BC
	.byte	$BE
	.byte	$28
	.byte	$02
	.byte	$03
	.byte	$05
	.byte	$28
	.byte	$1D
	.byte	$19
	.byte	$0E
	.byte	$26
	.byte	$12
	.byte	$1F
	.byte	$28
	.byte	$14
	.byte	$0E
	.byte	$1A
	.byte	$12
	.byte	$28
	.byte	$02
	.byte	$02
	.byte	$00
	.byte	$02
	.byte	$03
	.byte	$93
	.byte	$00
	.byte	$68
	.byte	$98
	.byte	$86
	.byte	$83
	.byte	$AC
	.byte	$9E
	.byte	$28
	.byte	$02
	.byte	$13
	.byte	$00
	.byte	$02
	.byte	$02
	.byte	$60
	.byte	$90
	.byte	$00
	.byte	$00
	.byte	$A0
	.byte	$00
	.byte	$66
	.byte	$AF
	.byte	$DE
	.byte	$28
	.byte	$02
	.byte	$03
	.byte	$06
	.byte	$28
	.byte	$1D
	.byte	$19
	.byte	$0E
	.byte	$26
	.byte	$12
	.byte	$1F
	.byte	$28
	.byte	$14
	.byte	$0E
	.byte	$1A
	.byte	$12
	.byte	$28
	.byte	$02
	.byte	$02
	.byte	$00
	.byte	$66
	.byte	$00
	.byte	$00
	.byte	$91
	.byte	$00
	.byte	$00
	.byte	$A3
	.byte	$00
	.byte	$00
	.byte	$AF
	.byte	$28
	.byte	$02
	.byte	$14
	.byte	$00
	.byte	$02
	.byte	$03
	.byte	$90
	.byte	$66
	.byte	$00
	.byte	$A3
	.byte	$00
	.byte	$00
	.byte	$AD
	.byte	$28
	.byte	$02
	.byte	$04
	.byte	$12
	.byte	$1B
	.byte	$21
	.byte	$12
	.byte	$1F
	.byte	$28
	.byte	$10
	.byte	$04
	.byte	$11
	.byte	$12
	.byte	$28
	.byte	$02
	.byte	$05
	.byte	$00
	.byte	$00
	.byte	$68
	.byte	$00
	.byte	$90
	.byte	$00
	.byte	$00
	.byte	$A3
	.byte	$00
	.byte	$66
	.byte	$BD
	.byte	$8D
	.byte	$28
	.byte	$02
	.byte	$13
	.byte	$00
	.byte	$02
	.byte	$02
	.byte	$62
	.byte	$90
	.byte	$00
	.byte	$00
	.byte	$A2
	.byte	$00
	.byte	$02
	.byte	$04
	.byte	$67
	.byte	$00
	.byte	$02
	.byte	$03
	.byte	$71
	.byte	$76
	.byte	$76
	.byte	$74
	.byte	$76
	.byte	$77
	.byte	$77
	.byte	$73
	.byte	$00
	.byte	$65
	.byte	$00
	.byte	$02
	.byte	$03
	.byte	$BC
	.byte	$BE
	.byte	$70
	.byte	$75
	.byte	$9B
	.byte	$00
	.byte	$00
	.byte	$A2
	.byte	$00
	.byte	$00
	.byte	$60
	.byte	$00
	.byte	$00
	.byte	$68
	.byte	$64
	.byte	$00
	.byte	$61
	.byte	$00
	.byte	$92
	.byte	$00
	.byte	$02
	.byte	$03
	.byte	$98
	.byte	$84
	.byte	$83
	.byte	$00
	.byte	$02
	.byte	$02
	.byte	$69
	.byte	$00
	.byte	$00
	.byte	$AC
	.byte	$9E
	.byte	$80
	.byte	$87
	.byte	$99
	.byte	$00
	.byte	$00
	.byte	$A2
	.byte	$00
	.byte	$02
	.byte	$09
	.byte	$94
	.byte	$79
	.byte	$7A
	.byte	$79
	.byte	$7A
	.byte	$97
	.byte	$00
	.byte	$63
	.byte	$00
	.byte	$02
	.byte	$05
	.byte	$AC
	.byte	$DE
	.byte	$7F
	.byte	$BE
	.byte	$93
	.byte	$00
	.byte	$00
	.byte	$A1
	.byte	$00
	.byte	$02
	.byte	$02
	.byte	$62
	.byte	$00
	.byte	$02
	.byte	$05
	.byte	$A5
	.byte	$8B
	.byte	$89
	.byte	$88
	.byte	$8A
	.byte	$A6
	.byte	$00
	.byte	$02
	.byte	$03
	.byte	$62
	.byte	$00
	.byte	$02
	.byte	$02
	.byte	$AD
	.byte	$DF
	.byte	$8C
	.byte	$BF
	.byte	$91
	.byte	$00
	.byte	$00
	.byte	$A3
	.byte	$00
	.byte	$02
	.byte	$07
	.byte	$67
	.byte	$00
	.byte	$02
	.byte	$03
	.byte	$61
	.byte	$69
	.byte	$00
	.byte	$02
	.byte	$02
	.byte	$BC
	.byte	$7E
	.byte	$7F
	.byte	$7C
	.byte	$7E
	.byte	$7E
	.byte	$DD
	.byte	$9E
	.byte	$00
	.byte	$00
	.byte	$92
	.byte	$00
	.byte	$00
	.byte	$A1
	.byte	$00
	.byte	$67
	.byte	$00
	.byte	$02
	.byte	$08
	.byte	$65
	.byte	$00
	.byte	$68
	.byte	$00
	.byte	$02
	.byte	$03
	.byte	$BD
	.byte	$8C
	.byte	$8D
	.byte	$8F
	.byte	$8D
	.byte	$8C
	.byte	$8F
	.byte	$BF
	.byte	$00
	.byte	$00
	.byte	$90
	.byte	$00
	.byte	$44
	.byte	$00
	.byte	$02
	.byte	$03
	.byte	$40
	.byte	$00
	.byte	$00
	.byte	$04
	.byte	$89
	.byte	$AA
	.byte	$02
	.byte	$03
	.byte	$22
	.byte	$01
	.byte	$04
	.byte	$89
	.byte	$AA
	.byte	$02
	.byte	$03
	.byte	$22
	.byte	$00
	.byte	$00
	.byte	$88
	.byte	$AA
	.byte	$02
	.byte	$03
	.byte	$22
	.byte	$11
	.byte	$00
	.byte	$B8
	.byte	$AA
	.byte	$02
	.byte	$03
	.byte	$26
	.byte	$11
	.byte	$00
	.byte	$BB
	.byte	$AA
	.byte	$02
	.byte	$03
	.byte	$22
	.byte	$10
	.byte	$00
	.byte	$11
	.byte	$05
	.byte	$00
	.byte	$40
	.byte	$41
	.byte	$CC
	.byte	$30
	.byte	$00
	.byte	$02
	.byte	$02
	.byte	$05
	.byte	$00
	.byte	$0F
	.byte	$0F
	.byte	$00
	.byte	$00
	.byte	$02
	.byte	$00

.segment	"BSS"

.segment	"ZEROPAGE"
_temp0:
	.res	1,$00
_temp1:
	.res	1,$00
_temp2:
	.res	1,$00
_temp3:
	.res	1,$00
_temp4:
	.res	1,$00
_temp5:
	.res	1,$00
.segment	"BSS"
.segment	"ZEROPAGE"
_i:
	.res	1,$00
_j:
	.res	1,$00
_craft_x:
	.res	6,$00
_craft_y:
	.res	6,$00
.segment	"BSS"
_spr:
	.res	1,$00
_frame:
	.res	1,$00
_update_list:
	.res	47,$00
_enemy_spawn_scr:
	.res	1,$00
_wall_hit_x:
	.res	2,$00
_wall_hit_y:
	.res	2,$00
_wall_hit_hp:
	.res	2,$00
_wall_count:
	.res	1,$00
_has_big_wall:
	.res	1,$00
_craft_bullet_x:
	.res	12,$00
_craft_bullet_flag:
	.res	12,$00

; ---------------------------------------------------------------
; unsigned char __near__ __fastcall__ isCellBulletFree (unsigned char, unsigned char)
; ---------------------------------------------------------------

.segment	"CODE"

.proc	_isCellBulletFree: near

.segment	"CODE"

;
; unsigned char __fastcall__ isCellBulletFree(unsigned char i, unsigned char j){
;
	jsr     pusha
;
; return !(bullet_blocked[j] & (1<<(i)));
;
	ldx     #$00
	lda     (sp,x)
	asl     a
	bcc     L0E98
	inx
	clc
L0E98:	adc     #<(_bullet_blocked)
	sta     ptr1
	txa
	adc     #>(_bullet_blocked)
	sta     ptr1+1
	ldy     #$01
	lda     (ptr1),y
	tax
	dey
	lda     (ptr1),y
	jsr     pushax
	lda     #$01
	jsr     pusha0
	ldy     #$05
	lda     (sp),y
	jsr     tosaslax
	jsr     tosandax
	jsr     bnegax
;
; }
;
	jmp     incsp2

.endproc

; ---------------------------------------------------------------
; unsigned char __near__ __fastcall__ isFreeIn (unsigned char, unsigned char)
; ---------------------------------------------------------------

.segment	"CODE"

.proc	_isFreeIn: near

.segment	"CODE"

;
; unsigned char __fastcall__ isFreeIn(unsigned char x, unsigned char y){
;
	jsr     pusha
;
; y += (scr&15);
;
	lda     _scr
	and     #$0F
	ldy     #$00
	clc
	adc     (sp),y
	sta     (sp),y
;
; return !(blocked[y>>4] & (1<<(x>>4)));
;
	ldx     #$00
	lda     (sp),y
	jsr     asrax4
	stx     tmp1
	asl     a
	rol     tmp1
	clc
	adc     #<(_blocked)
	sta     ptr1
	lda     tmp1
	adc     #>(_blocked)
	sta     ptr1+1
	iny
	lda     (ptr1),y
	tax
	dey
	lda     (ptr1),y
	jsr     pushax
	lda     #$01
	jsr     pusha0
	ldy     #$05
	lda     (sp),y
	jsr     asrax4
	jsr     tosaslax
	jsr     tosandax
	jsr     bnegax
;
; }
;
	jmp     incsp2

.endproc

; ---------------------------------------------------------------
; unsigned char __near__ __fastcall__ isFree (unsigned char, unsigned char, unsigned char)
; ---------------------------------------------------------------

.segment	"CODE"

.proc	_isFree: near

.segment	"CODE"

;
; unsigned char __fastcall__ isFree(unsigned char x, unsigned char y, unsigned char dir){
;
	jsr     pusha
;
; if(dir == DIR_LEFT) x-=3;
;
	ldy     #$00
	lda     (sp),y
	cmp     #$08
	bne     L0366
	ldy     #$02
	lda     (sp),y
	sec
	sbc     #$03
;
; else if(dir == DIR_RIGHT) x+=3;
;
	jmp     L0E99
L0366:	lda     (sp),y
	cmp     #$02
	bne     L036B
	tay
	clc
	lda     #$03
	adc     (sp),y
L0E99:	sta     (sp),y
;
; if(dir == DIR_UP) y-=3;
;
L036B:	ldy     #$00
	lda     (sp),y
	cmp     #$01
	bne     L036F
	iny
	lda     (sp),y
	sec
	sbc     #$03
;
; else if(dir == DIR_DOWN) y+=3;
;
	jmp     L0E9A
L036F:	lda     (sp),y
	cmp     #$04
	bne     L0374
	iny
	clc
	lda     #$03
	adc     (sp),y
L0E9A:	sta     (sp),y
;
; if(dir&3)
;
L0374:	ldy     #$00
	lda     (sp),y
	and     #$03
	beq     L0378
;
; return isFreeIn(x, y+2) && isFreeIn(x, y-2)/* && isFreeIn(x, y)*/;
;
	ldy     #$02
	lda     (sp),y
	jsr     pusha
	ldy     #$02
	lda     (sp),y
	clc
	adc     #$02
	jsr     _isFreeIn
	tax
	jeq     incsp3
	ldy     #$02
	lda     (sp),y
	jsr     pusha
	ldy     #$02
	lda     (sp),y
	sec
	sbc     #$02
	jsr     _isFreeIn
	tax
	bne     L0384
	jmp     incsp3
;
; return isFreeIn(x+2, y) && isFreeIn(x-2, y)/* && isFreeIn(x, y)*/;
;
L0378:	ldy     #$02
	lda     (sp),y
	clc
	adc     #$02
	jsr     pusha
	ldy     #$02
	lda     (sp),y
	jsr     _isFreeIn
	tax
	jeq     incsp3
	ldy     #$02
	lda     (sp),y
	sec
	sbc     #$02
	jsr     pusha
	ldy     #$02
	lda     (sp),y
	jsr     _isFreeIn
	tax
	jeq     incsp3
L0384:	ldx     #$00
	lda     #$01
;
; }
;
	jmp     incsp3

.endproc

; ---------------------------------------------------------------
; unsigned char __near__ damage_craft (unsigned char, unsigned char)
; ---------------------------------------------------------------

.segment	"CODE"

.proc	_damage_craft: near

.segment	"CODE"

;
; if(craft_hps[index] > damage){
;
	ldy     #$01
	lda     (sp),y
	tay
	lda     _craft_hps,y
	sec
	ldy     #$00
	sbc     (sp),y
	bcc     L038E
	beq     L038E
;
; craft_hps[index]  -= damage;
;
	lda     #<(_craft_hps)
	ldx     #>(_craft_hps)
	iny
	clc
	adc     (sp),y
	bcc     L0394
	inx
L0394:	sta     sreg
	stx     sreg+1
	sta     ptr1
	stx     ptr1+1
	dey
	ldx     #$00
	lda     (ptr1),y
	sec
	sbc     (sp),y
	sta     (sreg),y
;
; return 0;
;
	txa
	jmp     incsp2
;
; craft_hps[index] = 0;
;
L038E:	lda     #<(_craft_hps)
	ldx     #>(_craft_hps)
	iny
	clc
	adc     (sp),y
	bcc     L0399
	inx
L0399:	sta     ptr1
	stx     ptr1+1
	lda     #$00
	dey
	sta     (ptr1),y
;
; return 1;
;
	tax
	lda     #$01
;
; }
;
	jmp     incsp2

.endproc

; ---------------------------------------------------------------
; void __near__ menu (void)
; ---------------------------------------------------------------

.segment	"CODE"

.proc	_menu: near

.segment	"CODE"

;
; selected_item = 0;
;
	lda     #$00
	sta     _temp0
;
; old_pad = 0;
;
	sta     _temp1
;
; ++frame;
;
L03A1:	inc     _frame
;
; ppu_wait_frame();
;
	jsr     _ppu_wait_frame
;
; spr = 0;
;
	lda     #$00
	sta     _spr
;
; pad=pad_poll(0)|pad_poll(1);
;
	jsr     _pad_poll
	jsr     pushax
	lda     #$01
	jsr     _pad_poll
	jsr     tosorax
	sta     _temp2
;
; if(old_pad != pad){
;
	cmp     _temp1
	beq     L03CF
;
; old_pad = pad;
;
	lda     _temp2
	sta     _temp1
;
; if(pad&PAD_UP){
;
	lda     _temp2
	and     #$10
	beq     L03B0
;
; --selected_item;
;
	dec     _temp0
;
; if(selected_item == 255) selected_item = 2;
;
	lda     _temp0
	cmp     #$FF
	bne     L03CF
	lda     #$02
	sta     _temp0
;
; } else if(pad&PAD_DOWN){
;
	jmp     L03CF
L03B0:	lda     _temp2
	and     #$20
	beq     L03B8
;
; ++selected_item;
;
	inc     _temp0
;
; if(selected_item == 3) selected_item = 0;
;
	lda     _temp0
	cmp     #$03
	bne     L03CF
	lda     #$00
	sta     _temp0
;
; } else if(pad&(PAD_A|PAD_B|PAD_START|PAD_SELECT)){
;
	jmp     L03CF
L03B8:	lda     _temp2
	and     #$0F
	beq     L03CF
;
; if(selected_item == 0){
;
	lda     _temp0
	bne     L03C3
;
; craft_lives[0] = 3;
;
	lda     #$03
	sta     _craft_lives
;
; craft_lives[1] = 0;
;
	lda     #$00
	sta     _craft_lives+1
;
; craft_types[1] = 255;
;
	lda     #$FF
	sta     _craft_types+1
;
; break;
;
	rts
;
; }else if(selected_item == 1){
;
L03C3:	lda     _temp0
	cmp     #$01
	bne     L03CF
;
; craft_lives[0] = 3;
;
	lda     #$03
	sta     _craft_lives
;
; craft_lives[1] = 3;
;
	sta     _craft_lives+1
;
; break;
;
	rts
;
; spr=oam_spr(61,   139 + selected_item * 16, 0x24, 1, spr);
;
L03CF:	jsr     decsp4
	lda     #$3D
	ldy     #$03
	sta     (sp),y
	ldx     #$00
	lda     _temp0
	jsr     shlax4
	clc
	adc     #$8B
	dey
	sta     (sp),y
	lda     #$24
	dey
	sta     (sp),y
	tya
	dey
	sta     (sp),y
	lda     _spr
	jsr     _oam_spr
	sta     _spr
;
; spr=oam_spr(61+8, 139 + selected_item * 16, 0x34, 1, spr);
;
	jsr     decsp4
	lda     #$45
	ldy     #$03
	sta     (sp),y
	ldx     #$00
	lda     _temp0
	jsr     shlax4
	clc
	adc     #$8B
	dey
	sta     (sp),y
	lda     #$34
	dey
	sta     (sp),y
	tya
	dey
	sta     (sp),y
	lda     _spr
	jsr     _oam_spr
	sta     _spr
;
; }
;
	jmp     L03A1

.endproc

; ---------------------------------------------------------------
; void __near__ draw_tank (void)
; ---------------------------------------------------------------

.segment	"CODE"

.proc	_draw_tank: near

.segment	"CODE"

;
; craft_sprite = craft_types[i]?0x00:0x40;
;
	ldy     _i
	lda     _craft_types,y
	beq     L03EC
	lda     #$00
	jmp     L03EE
L03EC:	lda     #$40
L03EE:	sta     _temp0
;
; switch(sprite_dirs[i]){
;
	ldy     _i
	lda     _sprite_dirs,y
;
; }
;
	cmp     #$01
	beq     L03F6
	cmp     #$02
	beq     L03FC
	cmp     #$04
	beq     L0402
	cmp     #$08
	beq     L0408
	jmp     L03F4
;
; craft_sprite += 0x04;
;
L03F6:	lda     #$04
	clc
	adc     _temp0
	sta     _temp0
;
; craft_sprite_prop = 0;
;
	lda     #$00
;
; break;
;
	jmp     L0E9E
;
; craft_sprite += 0x24;
;
L03FC:	lda     #$24
	clc
	adc     _temp0
	sta     _temp0
;
; craft_sprite_prop = 0;
;
	lda     #$00
;
; break;
;
	jmp     L0E9E
;
; craft_sprite += 0x04;
;
L0402:	clc
	adc     _temp0
	sta     _temp0
;
; craft_sprite_prop = OAM_FLIP_V;
;
	lda     #$80
;
; break;
;
	jmp     L0E9E
;
; craft_sprite += 0x34;
;
L0408:	lda     #$34
	clc
	adc     _temp0
	sta     _temp0
;
; craft_sprite_prop = OAM_FLIP_H;
;
	lda     #$40
L0E9E:	sta     _temp1
;
; if(sprite_look_dirs[i] == DIR_LEFT){
;
L03F4:	ldy     _i
	lda     _sprite_look_dirs,y
	cmp     #$08
;
; }else if(sprite_look_dirs[i] == DIR_RIGHT){
;
	beq     L0EA1
	ldy     _i
	lda     _sprite_look_dirs,y
	cmp     #$02
	bne     L0414
;
; craft_sprite += 0x04;
;
	lda     #$04
L0EA1:	clc
	adc     _temp0
	sta     _temp0
;
; if(i < 2){
;
L0414:	lda     _i
	cmp     #$02
	bcs     L041A
;
; if((frame & 8) == (i?8:0)&& (pad_poll(i)&(PAD_LEFT|PAD_RIGHT|PAD_UP|PAD_DOWN))){
;
	lda     _frame
	ldx     #$00
	and     #$08
	sta     ptr1
	stx     ptr1+1
	lda     _i
	beq     L0422
	lda     #$08
L0422:	cpx     ptr1+1
	bne     L041C
	cmp     ptr1
	bne     L041C
	lda     _i
	jsr     _pad_poll
	and     #$F0
	beq     L041C
;
; craft_sprite += 2;
;
	lda     #$02
	clc
	adc     _temp0
	sta     _temp0
;
; craft_sprite_prop = i | craft_sprite_prop;
;
L041C:	lda     _temp1
	ora     _i
	sta     _temp1
;
; }else{
;
	jmp     L0430
;
; craft_sprite_prop |= 2;
;
L041A:	lda     _temp1
	ora     #$02
	sta     _temp1
;
; if(frame & 8){
;
	lda     _frame
	and     #$08
	beq     L0430
;
; craft_sprite += 2;
;
	lda     #$02
	clc
	adc     _temp0
	sta     _temp0
;
; spr=oam_spr(craft_x[i]-8, craft_y[i]-8, craft_sprite, craft_sprite_prop, spr);
;
L0430:	jsr     decsp4
	ldy     _i
	lda     _craft_x,y
	sec
	sbc     #$08
	ldy     #$03
	sta     (sp),y
	ldy     _i
	lda     _craft_y,y
	sec
	sbc     #$08
	ldy     #$02
	sta     (sp),y
	lda     _temp0
	dey
	sta     (sp),y
	lda     _temp1
	dey
	sta     (sp),y
	lda     _spr
	jsr     _oam_spr
	sta     _spr
;
; spr=oam_spr(craft_x[i],   craft_y[i]-8, craft_sprite^0x10, craft_sprite_prop, spr);
;
	jsr     decsp4
	ldy     _i
	lda     _craft_x,y
	ldy     #$03
	sta     (sp),y
	ldy     _i
	lda     _craft_y,y
	sec
	sbc     #$08
	ldy     #$02
	sta     (sp),y
	lda     _temp0
	eor     #$10
	dey
	sta     (sp),y
	lda     _temp1
	dey
	sta     (sp),y
	lda     _spr
	jsr     _oam_spr
	sta     _spr
;
; }
;
	rts

.endproc

; ---------------------------------------------------------------
; void __near__ draw_all (void)
; ---------------------------------------------------------------

.segment	"CODE"

.proc	_draw_all: near

.segment	"CODE"

;
; for(i=0;i<6; i++){
;
	lda     #$00
L0EA2:	sta     _i
	cmp     #$06
	bcs     L044F
;
; if(craft_types[i] == 255) continue;
;
	ldy     _i
	lda     _craft_types,y
	cmp     #$FF
	beq     L0450
;
; draw_tank();
;
	jsr     _draw_tank
;
; if(i<2){
;
	lda     _i
	cmp     #$02
	bcs     L0450
;
; craft_hp_sprite = (craft_hps[i]&254);
;
	ldy     _i
	lda     _craft_hps,y
	and     #$FE
	sta     _temp1
;
; if((craft_hps[i]&1) && !(frame&16)){
;
	ldy     _i
	lda     _craft_hps,y
	and     #$01
	beq     L0462
	lda     _frame
	and     #$10
	bne     L0462
;
; craft_hp_sprite += 2;
;
	lda     #$02
	clc
	adc     _temp1
	sta     _temp1
;
; spr=oam_spr(i?256-20-8:20, 210, 0xA0+craft_hp_sprite, i, spr);
;
L0462:	jsr     decsp4
	lda     _i
	beq     L046F
	lda     #$E4
	jmp     L0471
L046F:	lda     #$14
L0471:	ldy     #$03
	sta     (sp),y
	lda     #$D2
	dey
	sta     (sp),y
	lda     _temp1
	clc
	adc     #$A0
	dey
	sta     (sp),y
	lda     _i
	dey
	sta     (sp),y
	lda     _spr
	jsr     _oam_spr
	sta     _spr
;
; for(i=0;i<6; i++){
;
L0450:	lda     _i
	clc
	adc     #$01
	jmp     L0EA2
;
; for(i=0; i<ENEMY_BULLET_COUNT; ++i){
;
L044F:	lda     #$00
	sta     _i
L0478:	lda     _i
	cmp     #$0C
	bcs     L0479
;
; if(craft_bullet_y[i] == 255) continue;
;
	ldy     _i
	lda     _craft_bullet_y,y
	cmp     #$FF
	beq     L047A
;
; spr=oam_spr(craft_bullet_x[i]-2, craft_bullet_y[i]-2, 0x80, i<CRAFT_BULLET_COUNT?i&1:2, spr);
;
	jsr     decsp4
	ldy     _i
	lda     _craft_bullet_x,y
	sec
	sbc     #$02
	ldy     #$03
	sta     (sp),y
	ldy     _i
	lda     _craft_bullet_y,y
	sec
	sbc     #$02
	ldy     #$02
	sta     (sp),y
	lda     #$80
	dey
	sta     (sp),y
	lda     _i
	cmp     #$08
	bcs     L0490
	lda     _i
	and     #$01
	jmp     L0492
L0490:	lda     #$02
L0492:	dey
	sta     (sp),y
	lda     _spr
	jsr     _oam_spr
	sta     _spr
;
; for(i=0; i<ENEMY_BULLET_COUNT; ++i){
;
L047A:	inc     _i
	jmp     L0478
;
; }
;
L0479:	rts

.endproc

; ---------------------------------------------------------------
; void __near__ init (void)
; ---------------------------------------------------------------

.segment	"CODE"

.proc	_init: near

.segment	"CODE"

;
; oam_size(1);
;
	lda     #$01
	jsr     _oam_size
;
; bank_spr(0);
;
	lda     #$00
	jsr     _bank_spr
;
; bank_bg(1);
;
	lda     #$01
	jsr     _bank_bg
;
; pal_all(palette);
;
	lda     #<(_palette)
	ldx     #>(_palette)
	jsr     _pal_all
;
; vram_adr(NAMETABLE_A);
;
	ldx     #$20
	lda     #$00
	jsr     _vram_adr
;
; vram_unrle(menu_data);
;
	lda     #<(_menu_data)
	ldx     #>(_menu_data)
	jsr     _vram_unrle
;
; update_list[0]=NT_UPD_EOF;
;
	lda     #$FF
	sta     _update_list
;
; update_list[1]=0x00;
;
	lda     #$00
	sta     _update_list+1
;
; update_list[2]=32;
;
	lda     #$20
	sta     _update_list+2
;
; update_list[35]=0x20|NT_UPD_HORZ;
;
	lda     #$60
	sta     _update_list+35
;
; update_list[36]=0x00;
;
	lda     #$00
	sta     _update_list+36
;
; update_list[37]=8;//length of attribute update sequence
;
	lda     #$08
	sta     _update_list+37
;
; update_list[46]=NT_UPD_EOF;
;
	lda     #$FF
	sta     _update_list+46
;
; set_vram_update(update_list);
;
	lda     #<(_update_list)
	ldx     #>(_update_list)
	jsr     _set_vram_update
;
; ppu_on_all();
;
	jsr     _ppu_on_all
;
; frame=0;
;
	lda     #$00
	sta     _frame
;
; }
;
	rts

.endproc

; ---------------------------------------------------------------
; void __near__ tick_bullets (void)
; ---------------------------------------------------------------

.segment	"CODE"

.proc	_tick_bullets: near

.segment	"CODE"

;
; for(i=0; i<ENEMY_BULLET_COUNT; ++i){
;
	lda     #$00
	sta     _i
L04BD:	lda     _i
	cmp     #$0C
	bcc     L0ECC
;
; }
;
	rts
;
; if(craft_bullet_y[i] == 255) continue;
;
L0ECC:	ldy     _i
	lda     _craft_bullet_y,y
	cmp     #$FF
	jeq     L04BF
;
; switch(craft_bullet_flag[i] & 0xF){ // bullet_dir
;
	ldy     _i
	lda     _craft_bullet_flag,y
	and     #$0F
;
; }
;
	cmp     #$01
	beq     L04CF
	cmp     #$02
	beq     L04E0
	cmp     #$03
	beq     L04D6
	cmp     #$04
	jeq     L04F1
	cmp     #$06
	beq     L04E7
	cmp     #$08
	jeq     L0502
	cmp     #$09
	jeq     L0509
	cmp     #$0C
	jeq     L04F8
	jmp     L04CD
;
; craft_bullet_y[i] -= 3;
;
L04CF:	lda     #<(_craft_bullet_y)
	ldx     #>(_craft_bullet_y)
	clc
	adc     _i
	bcc     L04D2
	inx
L04D2:	sta     ptr1
	stx     ptr1+1
	ldy     #$00
	lda     (ptr1),y
	sec
	sbc     #$03
;
; break;
;
	jmp     L0EB5
;
; craft_bullet_y[i] -= 2;
;
L04D6:	lda     #<(_craft_bullet_y)
	ldx     #>(_craft_bullet_y)
	clc
	adc     _i
	bcc     L04D9
	inx
L04D9:	sta     ptr1
	stx     ptr1+1
	ldy     #$00
	lda     (ptr1),y
	sec
	sbc     #$02
	sta     (ptr1),y
;
; craft_bullet_x[i] += 2;
;
	lda     #<(_craft_bullet_x)
	ldx     #>(_craft_bullet_x)
	clc
	adc     _i
	bcc     L04DD
	inx
L04DD:	sta     ptr1
	stx     ptr1+1
	lda     (ptr1),y
	clc
	adc     #$02
;
; break;
;
	jmp     L0EB5
;
; craft_bullet_x[i] += 3;
;
L04E0:	lda     #<(_craft_bullet_x)
	ldx     #>(_craft_bullet_x)
	clc
	adc     _i
	bcc     L04E3
	inx
L04E3:	sta     ptr1
	stx     ptr1+1
	ldy     #$00
	lda     (ptr1),y
	clc
	adc     #$03
;
; break;
;
	jmp     L0EB5
;
; craft_bullet_y[i] += 2;
;
L04E7:	lda     #<(_craft_bullet_y)
	ldx     #>(_craft_bullet_y)
	clc
	adc     _i
	bcc     L04EA
	inx
L04EA:	sta     ptr1
	stx     ptr1+1
	ldy     #$00
	lda     (ptr1),y
	clc
	adc     #$02
	sta     (ptr1),y
;
; craft_bullet_x[i] += 2;
;
	lda     #<(_craft_bullet_x)
	ldx     #>(_craft_bullet_x)
	clc
	adc     _i
	bcc     L04EE
	inx
L04EE:	sta     ptr1
	stx     ptr1+1
	lda     (ptr1),y
	clc
	adc     #$02
;
; break;
;
	jmp     L0EB5
;
; craft_bullet_y[i] += 3;
;
L04F1:	lda     #<(_craft_bullet_y)
	ldx     #>(_craft_bullet_y)
	clc
	adc     _i
	bcc     L04F4
	inx
L04F4:	sta     ptr1
	stx     ptr1+1
	ldy     #$00
	lda     (ptr1),y
	clc
	adc     #$03
;
; break;
;
	jmp     L0EB5
;
; craft_bullet_y[i] += 2;
;
L04F8:	lda     #<(_craft_bullet_y)
	ldx     #>(_craft_bullet_y)
	clc
	adc     _i
	bcc     L04FB
	inx
L04FB:	sta     ptr1
	stx     ptr1+1
	ldy     #$00
	lda     (ptr1),y
	clc
	adc     #$02
;
; break;
;
	jmp     L0ECB
;
; craft_bullet_x[i] -= 3;
;
L0502:	lda     #<(_craft_bullet_x)
	ldx     #>(_craft_bullet_x)
	clc
	adc     _i
	bcc     L0505
	inx
L0505:	sta     ptr1
	stx     ptr1+1
	ldy     #$00
	lda     (ptr1),y
	sec
	sbc     #$03
;
; break;
;
	jmp     L0EB5
;
; craft_bullet_y[i] -= 2;
;
L0509:	lda     #<(_craft_bullet_y)
	ldx     #>(_craft_bullet_y)
	clc
	adc     _i
	bcc     L050C
	inx
L050C:	sta     ptr1
	stx     ptr1+1
	ldy     #$00
	lda     (ptr1),y
	sec
	sbc     #$02
L0ECB:	sta     (ptr1),y
;
; craft_bullet_x[i] -= 2;
;
	lda     #<(_craft_bullet_x)
	ldx     #>(_craft_bullet_x)
	clc
	adc     _i
	bcc     L0510
	inx
L0510:	sta     ptr1
	stx     ptr1+1
	lda     (ptr1),y
	sec
	sbc     #$02
L0EB5:	sta     (ptr1),y
;
; if(craft_bullet_y[i] < 10 || craft_bullet_x[i] >= 245 || craft_bullet_y[i] >= 245 || craft_bullet_y[i] < 10){
;
L04CD:	ldy     _i
	lda     _craft_bullet_y,y
	cmp     #$0A
	bcc     L0513
	ldy     _i
	lda     _craft_bullet_x,y
	cmp     #$F5
	bcs     L0513
	ldy     _i
	lda     _craft_bullet_y,y
	cmp     #$F5
	bcs     L0513
	ldy     _i
	lda     _craft_bullet_y,y
	cmp     #$0A
	bcs     L0512
;
; craft_bullet_y[i] = 255;
;
L0513:	ldy     _i
	lda     #$FF
	sta     _craft_bullet_y,y
;
; continue;
;
	jmp     L04BF
;
; bullet_grid_pos_y = (craft_bullet_y[i] + (scr&15))>>4;
;
L0512:	ldy     _i
	ldx     #$00
	lda     _craft_bullet_y,y
	sta     ptr1
	lda     _scr
	and     #$0F
	clc
	adc     ptr1
	bcc     L0EBE
	inx
L0EBE:	jsr     shrax4
	sta     _temp1
;
; bullet_grid_pos_x = craft_bullet_x[i]>>4;
;
	ldy     _i
	ldx     #$00
	lda     _craft_bullet_x,y
	jsr     asrax4
	sta     _temp2
;
; has_collision = isCellBulletFree(bullet_grid_pos_x, bullet_grid_pos_y) == FALSE;
;
	jsr     pusha
	lda     _temp1
	jsr     _isCellBulletFree
	cmp     #$00
	jsr     booleq
	sta     _temp4
;
; if(i<CRAFT_BULLET_COUNT)
;
	lda     _i
	cmp     #$08
	jcs     L052F
;
; if(has_collision){
;
	lda     _temp4
	jeq     L0531
;
; if(wall_hit_hp[i&1] == 0 ||(wall_hit_x[i&1]&15) != bullet_grid_pos_x || (wall_hit_y[i&1]&15) != bullet_grid_pos_y)
;
	lda     _i
	and     #$01
	sta     ptr1
	txa
	clc
	adc     #>(_wall_hit_hp)
	sta     ptr1+1
	ldy     #<(_wall_hit_hp)
	lda     (ptr1),y
	beq     L0534
	lda     _i
	and     #$01
	sta     ptr1
	txa
	clc
	adc     #>(_wall_hit_x)
	sta     ptr1+1
	ldy     #<(_wall_hit_x)
	lda     (ptr1),y
	and     #$0F
	cmp     _temp2
	bne     L0534
	lda     _i
	and     #$01
	sta     ptr1
	txa
	clc
	adc     #>(_wall_hit_y)
	sta     ptr1+1
	ldy     #<(_wall_hit_y)
	lda     (ptr1),y
	and     #$0F
	cmp     _temp1
	beq     L0533
;
; wall_hit_x[i&1] = (wall_hit_x[i&1]&0xF0) | bullet_grid_pos_x;
;
L0534:	lda     _i
	and     #$01
	clc
	adc     #<(_wall_hit_x)
	sta     sreg
	txa
	adc     #>(_wall_hit_x)
	sta     sreg+1
	lda     _i
	and     #$01
	sta     ptr1
	txa
	clc
	adc     #>(_wall_hit_x)
	sta     ptr1+1
	ldy     #<(_wall_hit_x)
	lda     (ptr1),y
	and     #$F0
	sta     ptr1
	lda     _temp2
	ora     ptr1
	ldy     #$00
	sta     (sreg),y
;
; wall_hit_y[i&1] = (wall_hit_y[i&1]&0xF0) | bullet_grid_pos_y;
;
	lda     _i
	and     #$01
	clc
	adc     #<(_wall_hit_y)
	sta     sreg
	txa
	adc     #>(_wall_hit_y)
	sta     sreg+1
	lda     _i
	and     #$01
	sta     ptr1
	txa
	clc
	adc     #>(_wall_hit_y)
	sta     ptr1+1
	ldy     #<(_wall_hit_y)
	lda     (ptr1),y
	and     #$F0
	sta     ptr1
	lda     _temp1
	ora     ptr1
	ldy     #$00
	sta     (sreg),y
;
; wall_hit_hp[i&1] = 5;
;
	lda     _i
	and     #$01
	clc
	adc     #<(_wall_hit_hp)
	sta     ptr1
	txa
	adc     #>(_wall_hit_hp)
	sta     ptr1+1
	lda     #$05
	sta     (ptr1),y
;
; wall_hit_hp[i&1]--;
;
L0533:	lda     _i
	and     #$01
	clc
	adc     #<(_wall_hit_hp)
	tay
	txa
	adc     #>(_wall_hit_hp)
	tax
	tya
	sta     sreg
	stx     sreg+1
	sta     ptr1
	stx     ptr1+1
	ldy     #$00
	lda     (ptr1),y
	sec
	sbc     #$01
	sta     (sreg),y
;
; if(wall_hit_hp[i&1] == 0 && bullet_grid_pos_x != 0 && bullet_grid_pos_x != 15){
;
	lda     _i
	and     #$01
	sta     ptr1
	tya
	clc
	adc     #>(_wall_hit_hp)
	sta     ptr1+1
	ldy     #<(_wall_hit_hp)
	lda     (ptr1),y
	jne     L054A
	lda     _temp2
	jeq     L054A
	lda     _temp2
	cmp     #$0F
	jeq     L054A
;
; bullet_blocked[bullet_grid_pos_y] ^= (1<<bullet_grid_pos_x);
;
	ldx     #$00
	lda     _temp1
	asl     a
	bcc     L0EBB
	inx
	clc
L0EBB:	adc     #<(_bullet_blocked)
	tay
	txa
	adc     #>(_bullet_blocked)
	tax
	tya
	jsr     pushax
	sta     ptr1
	stx     ptr1+1
	ldy     #$01
	lda     (ptr1),y
	tax
	dey
	lda     (ptr1),y
	jsr     pushax
	lda     #$01
	jsr     pusha0
	lda     _temp2
	jsr     tosaslax
	jsr     tosxorax
	ldy     #$00
	jsr     staxspidx
;
; blocked[bullet_grid_pos_y] ^= (1<<bullet_grid_pos_x);
;
	ldx     #$00
	lda     _temp1
	asl     a
	bcc     L0EBC
	inx
	clc
L0EBC:	adc     #<(_blocked)
	tay
	txa
	adc     #>(_blocked)
	tax
	tya
	jsr     pushax
	sta     ptr1
	stx     ptr1+1
	ldy     #$01
	lda     (ptr1),y
	tax
	dey
	lda     (ptr1),y
	jsr     pushax
	lda     #$01
	jsr     pusha0
	lda     _temp2
	jsr     tosaslax
	jsr     tosxorax
	ldy     #$00
	jsr     staxspidx
;
; row_index_on_ns = last_row_index;
;
	lda     _last_row_index
	sta     _temp0
;
; if(row_index_on_ns&1) row_index_on_ns--;
;
	and     #$01
	beq     L0559
	lda     _temp0
	sec
	sbc     #$01
	sta     _temp0
;
; row_index_on_ns +=(bullet_grid_pos_y<<1);
;
L0559:	lda     _temp1
	asl     a
	clc
	adc     _temp0
	sta     _temp0
;
; if(row_index_on_ns>=60) row_index_on_ns-=60;
;
	cmp     #$3C
	bcc     L055F
	lda     _temp0
	sec
	sbc     #$3C
	sta     _temp0
;
; if(row_index_on_ns<30){
;
L055F:	lda     _temp0
	cmp     #$1E
	bcs     L0563
;
; adr = NAMETABLE_A+(row_index_on_ns<<5);
;
	ldx     #$00
	lda     _temp0
	jsr     aslax4
	stx     tmp1
	asl     a
	rol     tmp1
	sta     _adr
	lda     tmp1
	clc
	adc     #$20
;
; }else{
;
	jmp     L0EC0
;
; row_index_on_ns-=30;
;
L0563:	lda     _temp0
	sec
	sbc     #$1E
	sta     _temp0
;
; adr = NAMETABLE_C+(row_index_on_ns<<5);
;
	ldx     #$00
	lda     _temp0
	jsr     aslax4
	stx     tmp1
	asl     a
	rol     tmp1
	sta     _adr
	lda     tmp1
	clc
	adc     #$28
L0EC0:	sta     _adr+1
;
; adr += bullet_grid_pos_x<<1;
;
	ldx     #$00
	lda     _temp2
	asl     a
	bcc     L0EBD
	inx
	clc
L0EBD:	adc     _adr
	sta     _adr
	txa
	adc     _adr+1
	sta     _adr+1
;
; update_list[0]=MSB(adr)|NT_UPD_HORZ;
;
	ora     #$40
	sta     _update_list
;
; update_list[1]=LSB(adr);
;
	lda     _adr
	sta     _update_list+1
;
; update_list[2] = 2;
;
	lda     #$02
	sta     _update_list+2
;
; update_list[5]=NT_UPD_EOF;
;
	lda     #$FF
	sta     _update_list+5
;
; adr += 32;
;
	lda     #$20
	clc
	adc     _adr
	sta     _adr
	bcc     L0584
	inc     _adr+1
;
; update_list[5]=MSB(adr)|NT_UPD_HORZ;
;
L0584:	lda     _adr+1
	ora     #$40
	sta     _update_list+5
;
; update_list[6]=LSB(adr);
;
	lda     _adr
	sta     _update_list+6
;
; update_list[7] = 2;
;
	lda     #$02
	sta     _update_list+7
;
; update_list[10]=NT_UPD_EOF;
;
	lda     #$FF
	sta     _update_list+10
;
; collision_edge_data = 0;
;
	sty     _temp5
;
; if(bullet_grid_pos_y)
;
	lda     _temp1
	beq     L0599
;
; collision_edge_data |= (!isCellBulletFree(bullet_grid_pos_x, bullet_grid_pos_y-1) || (((wall_hit_x[i&1])>>4) == bullet_grid_pos_x && ((wall_hit_y[i&1])>>4) == bullet_grid_pos_y-1));
;
	lda     _temp5
	jsr     pusha0
	lda     _temp2
	jsr     pusha
	lda     _temp1
	sec
	sbc     #$01
	jsr     _isCellBulletFree
	tax
	beq     L059D
	lda     _i
	and     #$01
	sta     ptr1
	lda     #$00
	clc
	adc     #>(_wall_hit_x)
	sta     ptr1+1
	ldy     #<(_wall_hit_x)
	ldx     #$00
	lda     (ptr1),y
	jsr     asrax4
	cpx     #$00
	bne     L0EB1
	cmp     _temp2
	bne     L0EB1
	lda     _i
	and     #$01
	sta     ptr1
	txa
	clc
	adc     #>(_wall_hit_y)
	sta     ptr1+1
	ldy     #<(_wall_hit_y)
	lda     (ptr1),y
	jsr     asrax4
	sta     ptr1
	stx     ptr1+1
	ldx     #$00
	lda     _temp1
	sec
	sbc     #$01
	bcs     L05A9
	dex
L05A9:	cpx     ptr1+1
	bne     L0EB1
	cmp     ptr1
	beq     L059D
L0EB1:	lda     #$00
	jmp     L05AB
L059D:	lda     #$01
L05AB:	jsr     tosora0
	sta     _temp5
;
; if(bullet_grid_pos_x)
;
L0599:	lda     _temp2
	beq     L05AC
;
; collision_edge_data |= (!isCellBulletFree(bullet_grid_pos_x-1, bullet_grid_pos_y) || (((wall_hit_x[i&1])>>4) == bullet_grid_pos_x-1 && ((wall_hit_y[i&1])>>4) == bullet_grid_pos_y))<<1;
;
	lda     _temp5
	jsr     pusha0
	lda     _temp2
	sec
	sbc     #$01
	jsr     pusha
	lda     _temp1
	jsr     _isCellBulletFree
	tax
	beq     L05B0
	lda     _i
	and     #$01
	sta     ptr1
	lda     #$00
	clc
	adc     #>(_wall_hit_x)
	sta     ptr1+1
	ldy     #<(_wall_hit_x)
	ldx     #$00
	lda     (ptr1),y
	jsr     asrax4
	sta     ptr1
	stx     ptr1+1
	ldx     #$00
	lda     _temp2
	sec
	sbc     #$01
	bcs     L05B8
	dex
L05B8:	cpx     ptr1+1
	bne     L0EB2
	cmp     ptr1
	bne     L0EB2
	lda     _i
	and     #$01
	sta     ptr1
	lda     #$00
	clc
	adc     #>(_wall_hit_y)
	sta     ptr1+1
	ldy     #<(_wall_hit_y)
	ldx     #$00
	lda     (ptr1),y
	jsr     asrax4
	cpx     #$00
	bne     L0EB2
	cmp     _temp1
	beq     L05B0
L0EB2:	ldx     #$00
	txa
	jmp     L05BE
L05B0:	lda     #$01
L05BE:	asl     a
	bcc     L0EA6
	inx
L0EA6:	jsr     tosorax
	sta     _temp5
;
; if(bullet_grid_pos_y<14)
;
L05AC:	lda     _temp1
	cmp     #$0E
	bcs     L05BF
;
; collision_edge_data |= (!isCellBulletFree(bullet_grid_pos_x, bullet_grid_pos_y+1) || (((wall_hit_x[i&1])>>4) == bullet_grid_pos_x && ((wall_hit_y[i&1])>>4) == bullet_grid_pos_y+1))<<2;
;
	lda     _temp5
	jsr     pusha0
	lda     _temp2
	jsr     pusha
	lda     _temp1
	clc
	adc     #$01
	jsr     _isCellBulletFree
	tax
	beq     L05C3
	lda     _i
	and     #$01
	sta     ptr1
	lda     #$00
	clc
	adc     #>(_wall_hit_x)
	sta     ptr1+1
	ldy     #<(_wall_hit_x)
	ldx     #$00
	lda     (ptr1),y
	jsr     asrax4
	cpx     #$00
	bne     L0EB3
	cmp     _temp2
	bne     L0EB3
	lda     _i
	and     #$01
	sta     ptr1
	txa
	clc
	adc     #>(_wall_hit_y)
	sta     ptr1+1
	ldy     #<(_wall_hit_y)
	lda     (ptr1),y
	jsr     asrax4
	sta     ptr1
	stx     ptr1+1
	ldx     #$00
	lda     _temp1
	clc
	adc     #$01
	bcc     L05CF
	inx
L05CF:	cpx     ptr1+1
	bne     L0EB3
	cmp     ptr1
	beq     L05C3
L0EB3:	ldx     #$00
	txa
	jmp     L05D1
L05C3:	ldx     #$00
	lda     #$01
L05D1:	jsr     aslax2
	jsr     tosorax
	sta     _temp5
;
; if(bullet_grid_pos_x<15)
;
L05BF:	lda     _temp2
	cmp     #$0F
	bcs     L05D2
;
; collision_edge_data |= (!isCellBulletFree(bullet_grid_pos_x+1, bullet_grid_pos_y) || (((wall_hit_x[i&1])>>4) == bullet_grid_pos_x+1 && ((wall_hit_y[i&1])>>4) == bullet_grid_pos_y))<<3;
;
	lda     _temp5
	jsr     pusha0
	lda     _temp2
	clc
	adc     #$01
	jsr     pusha
	lda     _temp1
	jsr     _isCellBulletFree
	tax
	beq     L05D6
	lda     _i
	and     #$01
	sta     ptr1
	lda     #$00
	clc
	adc     #>(_wall_hit_x)
	sta     ptr1+1
	ldy     #<(_wall_hit_x)
	ldx     #$00
	lda     (ptr1),y
	jsr     asrax4
	sta     ptr1
	stx     ptr1+1
	ldx     #$00
	lda     _temp2
	clc
	adc     #$01
	bcc     L05DE
	inx
L05DE:	cpx     ptr1+1
	bne     L0EB4
	cmp     ptr1
	bne     L0EB4
	lda     _i
	and     #$01
	sta     ptr1
	lda     #$00
	clc
	adc     #>(_wall_hit_y)
	sta     ptr1+1
	ldy     #<(_wall_hit_y)
	ldx     #$00
	lda     (ptr1),y
	jsr     asrax4
	cpx     #$00
	bne     L0EB4
	cmp     _temp1
	beq     L05D6
L0EB4:	ldx     #$00
	txa
	jmp     L05E4
L05D6:	lda     #$01
L05E4:	jsr     aslax3
	jsr     tosorax
	sta     _temp5
;
; if((collision_edge_data & 3) == 3)
;
L05D2:	lda     _temp5
	and     #$03
	cmp     #$03
	bne     L05E5
;
; update_list[3] = 0xB0;
;
	lda     #$B0
;
; else if(collision_edge_data & 1)
;
	jmp     L0EB7
L05E5:	lda     _temp5
	and     #$01
	beq     L05ED
;
; update_list[3] = 0xB4;
;
	lda     #$B4
;
; else if(collision_edge_data & 2)
;
	jmp     L0EB7
L05ED:	lda     _temp5
	and     #$02
	beq     L0EB7
;
; update_list[3] = 0xB2;
;
	lda     #$B2
;
; update_list[3] = 0;
;
L0EB7:	sta     _update_list+3
;
; if((collision_edge_data & 9) == 9)
;
	lda     _temp5
	and     #$09
	cmp     #$09
	bne     L05FC
;
; update_list[4] = 0xB1;
;
	lda     #$B1
;
; else if(collision_edge_data & 1)
;
	jmp     L0EB8
L05FC:	lda     _temp5
	and     #$01
	beq     L0604
;
; update_list[4] = 0xB5;
;
	lda     #$B5
;
; else if(collision_edge_data & 8)
;
	jmp     L0EB8
L0604:	lda     _temp5
	and     #$08
	beq     L0EB8
;
; update_list[4] = 0xB3;
;
	lda     #$B3
;
; update_list[4] = 0;
;
L0EB8:	sta     _update_list+4
;
; if((collision_edge_data & 6) == 6)
;
	lda     _temp5
	and     #$06
	cmp     #$06
	bne     L0613
;
; update_list[8] = 0xC0;
;
	lda     #$C0
;
; else if(collision_edge_data & 4)
;
	jmp     L0EB9
L0613:	lda     _temp5
	and     #$04
	beq     L061B
;
; update_list[8] = 0xC4;
;
	lda     #$C4
;
; else if(collision_edge_data & 2)
;
	jmp     L0EB9
L061B:	lda     _temp5
	and     #$02
	beq     L0EB9
;
; update_list[8] = 0xC2;
;
	lda     #$C2
;
; update_list[8] = 0;
;
L0EB9:	sta     _update_list+8
;
; if((collision_edge_data & 12) == 12)
;
	lda     _temp5
	and     #$0C
	cmp     #$0C
	bne     L062A
;
; update_list[9] = 0xC1;
;
	lda     #$C1
;
; else if(collision_edge_data & 4)
;
	jmp     L0EBA
L062A:	lda     _temp5
	and     #$04
	beq     L0632
;
; update_list[9] = 0xC5;
;
	lda     #$C5
;
; else if(collision_edge_data & 8)
;
	jmp     L0EBA
L0632:	lda     _temp5
	and     #$08
	beq     L0EBA
;
; update_list[9] = 0xC3;
;
	lda     #$C3
;
; update_list[9] = 0;
;
L0EBA:	sta     _update_list+9
;
; wall_hit_x[i&1] <<= 4;
;
	lda     _i
	and     #$01
	clc
	adc     #<(_wall_hit_x)
	sta     ptr1
	lda     #$00
	adc     #>(_wall_hit_x)
	sta     ptr1+1
	ldy     #$00
	lda     (ptr1),y
	asl     a
	asl     a
	asl     a
	asl     a
	sta     (ptr1),y
;
; wall_hit_y[i&1] <<= 4;
;
	lda     _i
	and     #$01
	clc
	adc     #<(_wall_hit_y)
	sta     ptr1
	tya
	adc     #>(_wall_hit_y)
	sta     ptr1+1
	lda     (ptr1),y
	asl     a
	asl     a
	asl     a
	asl     a
	sta     (ptr1),y
;
; craft_bullet_y[i] = 255;
;
L054A:	ldy     _i
	lda     #$FF
	sta     _craft_bullet_y,y
;
; continue;
;
	jmp     L04BF
;
; for(j=2; j<6; j++){
;
L0531:	lda     #$02
L0EC1:	sta     _j
	cmp     #$06
	jcs     L04BF
;
; if(craft_types[j] != 255){
;
	ldy     _j
	lda     _craft_types,y
	cmp     #$FF
	jeq     L064D
;
; if(craft_bullet_x[i] > craft_x[j]-6 && craft_bullet_x[i] < craft_x[j]+6 && craft_bullet_y[i] > craft_y[j]-6 && craft_bullet_y[i] < craft_y[j]+6){
;
	ldy     _i
	lda     _craft_bullet_x,y
	jsr     pusha0
	ldy     _j
	lda     _craft_x,y
	sec
	sbc     #$06
	bcs     L065D
	ldx     #$FF
L065D:	jsr     tosicmp
	bcc     L064D
	beq     L064D
	ldy     _i
	lda     _craft_bullet_x,y
	jsr     pusha0
	ldy     _j
	lda     _craft_x,y
	clc
	adc     #$06
	bcc     L0663
	ldx     #$01
L0663:	jsr     tosicmp
	bcs     L064D
	ldy     _i
	lda     _craft_bullet_y,y
	jsr     pusha0
	ldy     _j
	lda     _craft_y,y
	sec
	sbc     #$06
	bcs     L0668
	ldx     #$FF
L0668:	jsr     tosicmp
	bcc     L064D
	beq     L064D
	ldy     _i
	lda     _craft_bullet_y,y
	jsr     pusha0
	ldy     _j
	lda     _craft_y,y
	clc
	adc     #$06
	bcc     L066D
	ldx     #$01
L066D:	jsr     tosicmp
	bcs     L064D
;
; damage_craft(j, 1);
;
	jsr     decsp2
	lda     _j
	ldy     #$01
	sta     (sp),y
	tya
	dey
	sta     (sp),y
	jsr     _damage_craft
;
; craft_bullet_y[i] = 255;
;
	ldy     _i
	lda     #$FF
	sta     _craft_bullet_y,y
;
; break;
;
	jmp     L04BF
;
; for(j=2; j<6; j++){
;
L064D:	lda     _j
	clc
	adc     #$01
	jmp     L0EC1
;
; if(has_collision){
;
L052F:	lda     _temp4
	beq     L0677
;
; craft_bullet_y[i] = 255;
;
	ldy     _i
	lda     #$FF
	sta     _craft_bullet_y,y
;
; continue;
;
	jmp     L04BF
;
; for(j=0; j<2; j++){
;
L0677:	sta     _j
	cmp     #$02
	jcs     L04BF
;
; if(craft_lives[j] > 0){
;
	ldy     _j
	lda     _craft_lives,y
	jeq     L067F
;
; if(craft_bullet_x[i] > craft_x[j]-6 && craft_bullet_x[i] < craft_x[j]+6 && craft_bullet_y[i] > craft_y[j]-6 && craft_bullet_y[i] < craft_y[j]+6){
;
	ldy     _i
	lda     _craft_bullet_x,y
	jsr     pusha0
	ldy     _j
	lda     _craft_x,y
	sec
	sbc     #$06
	bcs     L068F
	ldx     #$FF
L068F:	jsr     tosicmp
	bcc     L067F
	beq     L067F
	ldy     _i
	lda     _craft_bullet_x,y
	jsr     pusha0
	ldy     _j
	lda     _craft_x,y
	clc
	adc     #$06
	bcc     L0695
	ldx     #$01
L0695:	jsr     tosicmp
	bcs     L067F
	ldy     _i
	lda     _craft_bullet_y,y
	jsr     pusha0
	ldy     _j
	lda     _craft_y,y
	sec
	sbc     #$06
	bcs     L069A
	ldx     #$FF
L069A:	jsr     tosicmp
	bcc     L067F
	beq     L067F
	ldy     _i
	lda     _craft_bullet_y,y
	jsr     pusha0
	ldy     _j
	lda     _craft_y,y
	clc
	adc     #$06
	bcc     L069F
	ldx     #$01
L069F:	jsr     tosicmp
	bcs     L067F
;
; damage_craft(j, 1);
;
	jsr     decsp2
	lda     _j
	ldy     #$01
	sta     (sp),y
	tya
	dey
	sta     (sp),y
	jsr     _damage_craft
;
; craft_bullet_y[i] = 255;
;
	ldy     _i
	lda     #$FF
	sta     _craft_bullet_y,y
;
; for(j=0; j<2; j++){
;
L067F:	lda     _j
	clc
	adc     #$01
	jmp     L0677
;
; for(i=0; i<ENEMY_BULLET_COUNT; ++i){
;
L04BF:	inc     _i
	jmp     L04BD

.endproc

; ---------------------------------------------------------------
; void __near__ tick_crafts (void)
; ---------------------------------------------------------------

.segment	"CODE"

.proc	_tick_crafts: near

.segment	"CODE"

;
; if(pad_poll(0)&PAD_B) TIMER_ENABLE(0);
;
	lda     #$00
	jsr     _pad_poll
	and     #$02
	beq     L06A9
	lda     $00FB
	ora     #$01
	sta     $00FB
;
; TIMER_BEGIN(0);
;
L06A9:	lda     $00FB
	and     #$01
	beq     L06B0
	lda     $00FA
	ora     #$01
	sta     $00FA
	lda     #$00
	sta     $00FF
;
; for(i=0;i<2;++i){
;
L06B0:	sta     _i
L06BB:	lda     _i
	cmp     #$02
	jcs     L06BC
;
; if(!craft_lives[i]) continue;
;
	ldy     _i
	lda     _craft_lives,y
	jeq     L06BD
;
; if(craft_hps[i] == 0)
;
	ldy     _i
	lda     _craft_hps,y
	bne     L06C7
;
; craft_hps[i] = 8;
;
	ldy     _i
	lda     #$08
	sta     _craft_hps,y
;
; craft_lives[i]--;
;
	lda     #<(_craft_lives)
	ldx     #>(_craft_lives)
	clc
	adc     _i
	bcc     L06D1
	inx
L06D1:	sta     sreg
	stx     sreg+1
	sta     ptr1
	stx     ptr1+1
	ldy     #$00
	lda     (ptr1),y
	sec
	sbc     #$01
	sta     (sreg),y
;
; pad=pad_poll(i);
;
L06C7:	lda     _i
	jsr     _pad_poll
	sta     _temp0
;
; shoot_left = (pad&(PAD_UP|PAD_DOWN)) && sprite_dirs[i] != DIR_LEFT && sprite_dirs[i] != DIR_RIGHT;
;
	and     #$30
	beq     L06D9
	ldy     _i
	lda     _sprite_dirs,y
	cmp     #$08
	beq     L06D9
	ldy     _i
	lda     _sprite_dirs,y
	cmp     #$02
	bne     L06D6
L06D9:	lda     #$00
	jmp     L06DE
L06D6:	lda     #$01
L06DE:	sta     _temp1
;
; shoot_right = (pad&(PAD_LEFT|PAD_RIGHT)) && sprite_dirs[i] != DIR_UP && sprite_dirs[i] != DIR_DOWN;
;
	lda     _temp0
	and     #$C0
	beq     L06E3
	ldy     _i
	lda     _sprite_dirs,y
	cmp     #$01
	beq     L06E3
	ldy     _i
	lda     _sprite_dirs,y
	cmp     #$04
	bne     L06E0
L06E3:	lda     #$00
	jmp     L06E8
L06E0:	lda     #$01
L06E8:	sta     _temp3
;
; move_dir = 0;
;
	lda     #$00
	sta     _temp2
;
; sprite_look_dirs[i] = 0;
;
	ldy     _i
	sta     _sprite_look_dirs,y
;
; move_amount = 0;
;
	sta     _temp4
;
; if(pad&PAD_LEFT){
;
	lda     _temp0
	and     #$40
	beq     L06F1
;
; move_amount++;
;
	lda     _temp4
	clc
	adc     #$01
	sta     _temp4
;
; move_dir |= DIR_LEFT;
;
	lda     _temp2
	ora     #$08
	sta     _temp2
;
; if(shoot_left){
;
	lda     _temp1
	beq     L06F6
;
; sprite_look_dirs[i] = DIR_LEFT;
;
	ldy     _i
	lda     #$08
	sta     _sprite_look_dirs,y
;
; }else{
;
	jmp     L070D
;
; sprite_dirs[i] = DIR_LEFT;
;
L06F6:	ldy     _i
	lda     #$08
;
; } else if(pad&PAD_RIGHT){
;
	jmp     L0ECD
L06F1:	lda     _temp0
	and     #$80
	beq     L070D
;
; move_amount++;
;
	lda     _temp4
	clc
	adc     #$01
	sta     _temp4
;
; move_dir |= DIR_RIGHT;
;
	lda     _temp2
	ora     #$02
	sta     _temp2
;
; if(shoot_left){
;
	lda     _temp1
	beq     L0707
;
; sprite_look_dirs[i] = DIR_RIGHT;
;
	ldy     _i
	lda     #$02
	sta     _sprite_look_dirs,y
;
; }else{
;
	jmp     L070D
;
; sprite_dirs[i] = DIR_RIGHT;
;
L0707:	ldy     _i
	lda     #$02
L0ECD:	sta     _sprite_dirs,y
;
; if(pad&PAD_UP){
;
L070D:	lda     _temp0
	and     #$10
	beq     L0712
;
; move_amount++;
;
	lda     _temp4
	clc
	adc     #$01
	sta     _temp4
;
; move_dir |= DIR_UP;
;
	lda     _temp2
	ora     #$01
	sta     _temp2
;
; if(shoot_right){
;
	lda     _temp3
	beq     L0717
;
; sprite_look_dirs[i] = DIR_LEFT;
;
	ldy     _i
	lda     #$08
	sta     _sprite_look_dirs,y
;
; }else{
;
	jmp     L072E
;
; sprite_dirs[i] = DIR_UP;
;
L0717:	ldy     _i
	lda     #$01
;
; } else if(pad&PAD_DOWN){
;
	jmp     L0ECE
L0712:	lda     _temp0
	and     #$20
	beq     L072E
;
; move_amount++;
;
	lda     _temp4
	clc
	adc     #$01
	sta     _temp4
;
; move_dir |= DIR_DOWN;
;
	lda     _temp2
	ora     #$04
	sta     _temp2
;
; if(shoot_right){
;
	lda     _temp3
	beq     L0728
;
; sprite_look_dirs[i] = DIR_RIGHT;
;
	ldy     _i
	lda     #$02
	sta     _sprite_look_dirs,y
;
; }else{
;
	jmp     L072E
;
; sprite_dirs[i] = DIR_DOWN;
;
L0728:	ldy     _i
	lda     #$04
L0ECE:	sta     _sprite_dirs,y
;
; if(move_amount == 1 || (frame&3) != 0)
;
L072E:	lda     _temp4
	cmp     #$01
	beq     L0734
	lda     _frame
	and     #$03
	jeq     L0747
;
; if((move_dir&DIR_LEFT) && isFree(craft_x[i], craft_y[i], DIR_LEFT)){
;
L0734:	lda     _temp2
	and     #$08
	beq     L0738
	jsr     decsp2
	ldy     _i
	lda     _craft_x,y
	ldy     #$01
	sta     (sp),y
	ldy     _i
	lda     _craft_y,y
	ldy     #$00
	sta     (sp),y
	lda     #$08
	jsr     _isFree
	tax
	beq     L0738
;
; craft_x[i]--;
;
	lda     #<(_craft_x)
	ldx     #>(_craft_x)
	clc
	adc     _i
	bcc     L0746
	inx
L0746:	sta     sreg
	stx     sreg+1
	sta     ptr1
	stx     ptr1+1
	ldy     #$00
	lda     (ptr1),y
	sec
	sbc     #$01
	sta     (sreg),y
;
; if((move_dir&DIR_RIGHT) && isFree(craft_x[i], craft_y[i], DIR_RIGHT)){
;
L0738:	lda     _temp2
	and     #$02
	beq     L0747
	jsr     decsp2
	ldy     _i
	lda     _craft_x,y
	ldy     #$01
	sta     (sp),y
	ldy     _i
	lda     _craft_y,y
	ldy     #$00
	sta     (sp),y
	lda     #$02
	jsr     _isFree
	tax
	beq     L0747
;
; craft_x[i]++;
;
	lda     #<(_craft_x)
	ldx     #>(_craft_x)
	clc
	adc     _i
	bcc     L0755
	inx
L0755:	sta     sreg
	stx     sreg+1
	sta     ptr1
	stx     ptr1+1
	ldy     #$00
	lda     (ptr1),y
	clc
	adc     #$01
	sta     (sreg),y
;
; if(move_amount == 1 || (frame&3) != 1)
;
L0747:	lda     _temp4
	cmp     #$01
	beq     L0757
	lda     _frame
	and     #$03
	cmp     #$01
	jeq     L0756
;
; if((move_dir&DIR_UP) && (((craft_y[i]-3+(scr&15))>>4) == 15 || isFree(craft_x[i], craft_y[i], DIR_UP))){
;
L0757:	lda     _temp2
	and     #$01
	beq     L075B
	ldy     _i
	ldx     #$00
	lda     _craft_y,y
	sec
	sbc     #$03
	bcs     L0764
	dex
L0764:	sta     ptr1
	stx     ptr1+1
	lda     _scr
	and     #$0F
	clc
	adc     ptr1
	ldx     ptr1+1
	bcc     L0ED0
	inx
L0ED0:	jsr     shrax4
	cpx     #$00
	bne     L0ED1
	cmp     #$0F
	beq     L075C
L0ED1:	jsr     decsp2
	ldy     _i
	lda     _craft_x,y
	ldy     #$01
	sta     (sp),y
	ldy     _i
	lda     _craft_y,y
	ldy     #$00
	sta     (sp),y
	lda     #$01
	jsr     _isFree
	tax
	beq     L075B
;
; craft_y[i]--;
;
L075C:	lda     #<(_craft_y)
	ldx     #>(_craft_y)
	clc
	adc     _i
	bcc     L0772
	inx
L0772:	sta     sreg
	stx     sreg+1
	sta     ptr1
	stx     ptr1+1
	ldy     #$00
	lda     (ptr1),y
	sec
	sbc     #$01
	sta     (sreg),y
;
; if((move_dir&DIR_DOWN) && isFree(craft_x[i], craft_y[i], DIR_DOWN)){
;
L075B:	lda     _temp2
	and     #$04
	beq     L0756
	jsr     decsp2
	ldy     _i
	lda     _craft_x,y
	ldy     #$01
	sta     (sp),y
	ldy     _i
	lda     _craft_y,y
	ldy     #$00
	sta     (sp),y
	lda     #$04
	jsr     _isFree
	tax
	beq     L0756
;
; craft_y[i]++;
;
	lda     #<(_craft_y)
	ldx     #>(_craft_y)
	clc
	adc     _i
	bcc     L0781
	inx
L0781:	sta     sreg
	stx     sreg+1
	sta     ptr1
	stx     ptr1+1
	ldy     #$00
	lda     (ptr1),y
	clc
	adc     #$01
	sta     (sreg),y
;
; if(craft_y[i] >= MAX_Y) craft_y[i] = MAX_Y;
;
L0756:	ldy     _i
	lda     _craft_y,y
	cmp     #$ED
	bcc     L0782
	ldy     _i
	lda     #$ED
	sta     _craft_y,y
;
; if(craft_bullet_timers[i] == 0){
;
L0782:	ldy     _i
	lda     _craft_bullet_timers,y
	jne     L078C
;
; if(pad&PAD_A){
;
	lda     _temp0
	and     #$01
	jeq     L07B5
;
; for(j=i; j < CRAFT_BULLET_COUNT; j += 2){
;
	lda     _i
L0ECF:	sta     _j
	cmp     #$08
	jcs     L07B5
;
; if(craft_bullet_y[j] != 255) continue;
;
	ldy     _j
	lda     _craft_bullet_y,y
	cmp     #$FF
	bne     L0794
;
; craft_bullet_x[j] = craft_x[i];
;
	lda     #<(_craft_bullet_x)
	ldx     #>(_craft_bullet_x)
	clc
	adc     _j
	bcc     L07A1
	inx
L07A1:	sta     ptr1
	stx     ptr1+1
	ldy     _i
	lda     _craft_x,y
	ldy     #$00
	sta     (ptr1),y
;
; craft_bullet_y[j] = craft_y[i];
;
	lda     #<(_craft_bullet_y)
	ldx     #>(_craft_bullet_y)
	clc
	adc     _j
	bcc     L07A7
	inx
L07A7:	sta     ptr1
	stx     ptr1+1
	ldy     _i
	lda     _craft_y,y
	ldy     #$00
	sta     (ptr1),y
;
; craft_bullet_flag[j] = move_dir | sprite_dirs[i];
;
	lda     #<(_craft_bullet_flag)
	ldx     #>(_craft_bullet_flag)
	clc
	adc     _j
	bcc     L07AD
	inx
L07AD:	sta     ptr1
	stx     ptr1+1
	ldy     _i
	lda     _sprite_dirs,y
	ora     _temp2
	ldy     #$00
	sta     (ptr1),y
;
; craft_bullet_timers[i] = 16;
;
	ldy     _i
	lda     #$10
	sta     _craft_bullet_timers,y
;
; break;
;
	jmp     L07B5
;
; for(j=i; j < CRAFT_BULLET_COUNT; j += 2){
;
L0794:	lda     #$02
	clc
	adc     _j
	jmp     L0ECF
;
; --craft_bullet_timers[i];
;
L078C:	lda     #<(_craft_bullet_timers)
	ldx     #>(_craft_bullet_timers)
	clc
	adc     _i
	bcc     L07B8
	inx
L07B8:	sta     ptr1
	stx     ptr1+1
	ldy     #$00
	lda     (ptr1),y
	sec
	sbc     #$01
	sta     (ptr1),y
;
; TIMER_TICK(0);
;
L07B5:	lda     $00FB
	and     #$01
	beq     L06BD
	lda     $00FF
	clc
	adc     #$01
	sta     $00FF
;
; for(i=0;i<2;++i){
;
L06BD:	inc     _i
	jmp     L06BB
;
; TIMER_END(0);
;
L06BC:	lda     $00FB
	and     #$01
	beq     L07BF
	lda     $00FA
	and     #$FE
	sta     $00FA
	lda     $00FF
	clc
	adc     #$01
	sta     $00FF
;
; if(pad_poll(0)&PAD_B)  TIMER_DISABLE(0);
;
L07BF:	lda     #$00
	jsr     _pad_poll
	and     #$02
	beq     L07C9
	lda     $00FB
	and     #$FE
	sta     $00FB
;
; }
;
L07C9:	rts

.endproc

; ---------------------------------------------------------------
; void __near__ scroll_screen (void)
; ---------------------------------------------------------------

.segment	"CODE"

.proc	_scroll_screen: near

.segment	"CODE"

;
; if(temp0 < 150){
;
	lda     _temp0
	cmp     #$96
	bcc     L0F78
;
; }
;
	rts
;
; set_rand(rand16()^frame^craft_x[0]^craft_y[1]);
;
L0F78:	jsr     _rand16
	sta     ptr1
	stx     ptr1+1
	lda     _frame
	eor     ptr1
	sta     ptr1
	lda     #$00
	eor     ptr1+1
	sta     ptr1+1
	lda     _craft_x
	eor     ptr1
	sta     ptr1
	lda     #$00
	eor     ptr1+1
	sta     ptr1+1
	lda     _craft_y+1
	eor     ptr1
	pha
	lda     #$00
	eor     ptr1+1
	tax
	pla
	jsr     _set_rand
;
; if(enemy_spawn_scr > scroll_amount){
;
	lda     _enemy_spawn_scr
	sec
	sbc     _temp1
	bcc     L07D7
	beq     L07D7
;
; enemy_spawn_scr -= scroll_amount;
;
	lda     _temp1
	eor     #$FF
	sec
	adc     _enemy_spawn_scr
;
; }else{
;
	jmp     L0EEF
;
; enemy_spawn_scr = 0;
;
L07D7:	lda     #$00
L0EEF:	sta     _enemy_spawn_scr
;
; for(i=0;i<6;++i){
;
	lda     #$00
	sta     _i
L07DE:	lda     _i
	cmp     #$06
	bcs     L07DF
;
; craft_y[i] += scroll_amount;
;
	lda     #<(_craft_y)
	ldx     #>(_craft_y)
	clc
	adc     _i
	bcc     L07E8
	inx
L07E8:	sta     sreg
	stx     sreg+1
	sta     ptr1
	stx     ptr1+1
	ldy     #$00
	lda     (ptr1),y
	clc
	adc     _temp1
	sta     (sreg),y
;
; if(craft_y[i] >= MAX_Y+1) craft_y[i] = MAX_Y+1;
;
	ldy     _i
	lda     _craft_y,y
	cmp     #$EE
	bcc     L07E0
	ldy     _i
	lda     #$EE
	sta     _craft_y,y
;
; for(i=0;i<6;++i){
;
L07E0:	inc     _i
	jmp     L07DE
;
; for(i=0; i<ENEMY_BULLET_COUNT; ++i){
;
L07DF:	lda     #$00
	sta     _i
L07F4:	lda     _i
	cmp     #$0C
	bcs     L07F5
;
; if(craft_bullet_y[i] == 255) continue;
;
	ldy     _i
	lda     _craft_bullet_y,y
	cmp     #$FF
	beq     L07F6
;
; if(craft_bullet_y[i] > 255 - scroll_amount){
;
	ldy     _i
	lda     _craft_bullet_y,y
	jsr     pusha0
	lda     #$FF
	sec
	sbc     _temp1
	jsr     tosicmp0
	bcc     L0800
	beq     L0800
;
; craft_bullet_y[i] = 255;
;
	ldy     _i
	lda     #$FF
	sta     _craft_bullet_y,y
;
; }else{
;
	jmp     L07F6
;
; craft_bullet_y[i] += scroll_amount;
;
L0800:	lda     #<(_craft_bullet_y)
	ldx     #>(_craft_bullet_y)
	clc
	adc     _i
	bcc     L080B
	inx
L080B:	sta     sreg
	stx     sreg+1
	sta     ptr1
	stx     ptr1+1
	ldy     #$00
	lda     (ptr1),y
	clc
	adc     _temp1
	sta     (sreg),y
;
; for(i=0; i<ENEMY_BULLET_COUNT; ++i){
;
L07F6:	inc     _i
	jmp     L07F4
;
; scr -= scroll_amount;
;
L07F5:	lda     _temp1
	eor     #$FF
	sec
	adc     _scr
	sta     _scr
	lda     #$FF
	adc     _scr+1
	sta     _scr+1
;
; if(scr<0) scr+=240*2;
;
	ldx     _scr+1
	cpx     #$80
	bcc     L080F
	lda     #$E0
	clc
	adc     _scr
	sta     _scr
	lda     #$01
	adc     _scr+1
	sta     _scr+1
;
; row_index = scr>>3;
;
L080F:	lda     _scr
	ldx     _scr+1
	jsr     asrax3
	sta     _temp0
;
; if(row_index>=60) row_index-=60;
;
	cmp     #$3C
	bcc     L0815
	lda     _temp0
	sec
	sbc     #$3C
	sta     _temp0
;
; if(last_row_index != row_index){
;
L0815:	ldx     #$00
	lda     _temp0
	cpx     _last_row_index+1
	bne     L0F2B
	cmp     _last_row_index
	jeq     L0C0E
;
; last_row_index = row_index;
;
L0F2B:	lda     _temp0
	sta     _last_row_index
	stx     _last_row_index+1
;
; update_list[2]=32;
;
	lda     #$20
	sta     _update_list+2
;
; if(row_index<30){
;
	lda     _temp0
	cmp     #$1E
	bcs     L0820
;
; adr = NAMETABLE_A+(row_index<<5);
;
	lda     _temp0
	jsr     aslax4
	stx     tmp1
	asl     a
	rol     tmp1
	sta     _adr
	lda     tmp1
	clc
	adc     #$20
	sta     _adr+1
;
; update_list[0]=MSB(adr)|NT_UPD_HORZ;
;
	ora     #$40
	sta     _update_list
;
; update_list[1]=LSB(adr);
;
	lda     _adr
	sta     _update_list+1
;
; adr=NAMETABLE_A+960+((row_index>>2)<<3);
;
	ldx     #$00
	lda     _temp0
	jsr     asrax2
	jsr     aslax3
	clc
	adc     #$C0
	sta     _adr
	txa
	adc     #$23
;
; }else{
;
	jmp     L0F51
;
; row_index-=30;
;
L0820:	lda     _temp0
	sec
	sbc     #$1E
	sta     _temp0
;
; adr = NAMETABLE_C+(row_index<<5);
;
	jsr     aslax4
	stx     tmp1
	asl     a
	rol     tmp1
	sta     _adr
	lda     tmp1
	clc
	adc     #$28
	sta     _adr+1
;
; update_list[0]=MSB(adr)|NT_UPD_HORZ;
;
	ora     #$40
	sta     _update_list
;
; update_list[1]=LSB(adr);
;
	lda     _adr
	sta     _update_list+1
;
; adr=NAMETABLE_C+960+((row_index>>2)<<3);
;
	ldx     #$00
	lda     _temp0
	jsr     asrax2
	jsr     aslax3
	clc
	adc     #$C0
	sta     _adr
	txa
	adc     #$2B
L0F51:	sta     _adr+1
;
; update_list[35]=MSB(adr)|NT_UPD_HORZ;//set attribute table update address
;
	ora     #$40
	sta     _update_list+35
;
; update_list[36]=LSB(adr);
;
	lda     _adr
	sta     _update_list+36
;
; if(row_index&1){ // build new line
;
	lda     _temp0
	and     #$01
	jeq     L0A2A
;
; if((wall_hit_y[0]&0xF) != 0xF){
;
	lda     _wall_hit_y
	and     #$0F
	cmp     #$0F
	beq     L0865
;
; wall_hit_y[0]++;
;
	lda     _wall_hit_y
	clc
	adc     #$01
	sta     _wall_hit_y
;
; if((wall_hit_y[1]&0xF) != 0xF){
;
L0865:	lda     _wall_hit_y+1
	and     #$0F
	cmp     #$0F
	beq     L086C
;
; wall_hit_y[1]++;
;
	lda     _wall_hit_y+1
	clc
	adc     #$01
	sta     _wall_hit_y+1
;
; if((wall_hit_y[0]&0xF0) != 0xF0){
;
L086C:	lda     _wall_hit_y
	and     #$F0
	cmp     #$F0
	beq     L0873
;
; wall_hit_y[0]+=0x10;
;
	lda     #$10
	clc
	adc     _wall_hit_y
	sta     _wall_hit_y
;
; if((wall_hit_y[1]&0xF0) != 0xF0){
;
L0873:	lda     _wall_hit_y+1
	and     #$F0
	cmp     #$F0
	beq     L087B
;
; wall_hit_y[1]+=0x10;
;
	lda     #$10
	clc
	adc     _wall_hit_y+1
	sta     _wall_hit_y+1
;
; for(i=2; i<16; i++){
;
L087B:	lda     #$02
L0F2E:	sta     _i
	cmp     #$10
	bcs     L0884
;
; prev_line[i] = current_line[i];
;
	lda     #<(_prev_line)
	ldx     #>(_prev_line)
	clc
	adc     _i
	bcc     L088D
	inx
L088D:	sta     ptr1
	stx     ptr1+1
	ldy     _i
	lda     _current_line,y
	ldy     #$00
	sta     (ptr1),y
;
; current_line[i] = next_line[i];
;
	lda     #<(_current_line)
	ldx     #>(_current_line)
	clc
	adc     _i
	bcc     L0893
	inx
L0893:	sta     ptr1
	stx     ptr1+1
	ldy     _i
	lda     _next_line,y
	ldy     #$00
	sta     (ptr1),y
;
; if(i==2 || i==15){
;
	lda     _i
	cmp     #$02
	beq     L0898
	lda     _i
	cmp     #$0F
	bne     L0897
;
; if(rand8() < 30){
;
L0898:	jsr     _rand8
	cmp     #$1E
	bcs     L0885
;
; if(next_line[i] == WALL) next_line[i] = GRASS;
;
	ldy     _i
	lda     _next_line,y
	cmp     #$01
;
; else next_line[i] = WALL;
;
	beq     L0897
	ldy     _i
	lda     #$01
;
; } else {
;
	jmp     L0EF1
;
; next_line[i] = GRASS;
;
L0897:	ldy     _i
	lda     #$00
L0EF1:	sta     _next_line,y
;
; for(i=2; i<16; i++){
;
L0885:	lda     _i
	clc
	adc     #$01
	jmp     L0F2E
;
; wall_count -= (wall_count>>3);
;
L0884:	ldx     #$00
	lda     _wall_count
	jsr     asrax3
	eor     #$FF
	sec
	adc     _wall_count
	sta     _wall_count
;
; if(wall_count>0) wall_count--;
;
	lda     _wall_count
	beq     L08B1
	lda     _wall_count
	sec
	sbc     #$01
	sta     _wall_count
;
; if(has_big_wall) has_big_wall--;
;
L08B1:	lda     _has_big_wall
	beq     L08B4
	lda     _has_big_wall
	sec
	sbc     #$01
	sta     _has_big_wall
;
; if(wall_count < 2 && (rand8()<150)){
;
L08B4:	lda     _wall_count
	cmp     #$02
	jcs     L08F8
	jsr     _rand8
	cmp     #$96
	jcs     L08F8
;
; wall_count = 0;
;
	lda     #$00
	sta     _wall_count
;
; random = rand8();
;
	jsr     _rand8
	sta     _temp2
;
; if(has_big_wall) selected_grid = WALL;
;
	lda     _has_big_wall
;
; else if(random < 60) selected_grid = WATER;
;
	bne     L08CF
	lda     _temp2
	cmp     #$3C
	bcs     L08C5
	lda     #$02
;
; else if(random < 120) selected_grid = FOREST;
;
	jmp     L0EF2
L08C5:	lda     _temp2
	cmp     #$78
	bcs     L08CA
	lda     #$04
;
; else if(random < 180){
;
	jmp     L0EF2
L08CA:	lda     _temp2
	cmp     #$B4
	bcs     L08CF
;
; selected_grid = WALL_BIG;
;
	lda     #$05
	sta     _temp1
;
; has_big_wall = 2;
;
	lda     #$02
	sta     _has_big_wall
;
; } else {
;
	jmp     L08D5
;
; selected_grid = WALL;
;
L08CF:	lda     #$01
L0EF2:	sta     _temp1
;
; grid_start = 4+(rand8()&1)+(rand8()&3)+(rand8()&5);
;
L08D5:	jsr     _rand8
	ldx     #$00
	and     #$01
	clc
	adc     #$04
	bcc     L08DB
	inx
L08DB:	jsr     pushax
	jsr     _rand8
	and     #$03
	jsr     tosadda0
	jsr     pushax
	jsr     _rand8
	and     #$05
	jsr     tosadda0
	sta     _temp2
;
; grid_end = grid_start;
;
	sta     _temp3
;
; if(rand8()&1) grid_start--;
;
	jsr     _rand8
	and     #$01
	beq     L08E0
	lda     _temp2
	sec
	sbc     #$01
	sta     _temp2
;
; if(rand8()&1) grid_end++;
;
L08E0:	jsr     _rand8
	and     #$01
	beq     L08E3
	lda     _temp3
	clc
	adc     #$01
	sta     _temp3
;
; if(selected_grid != WALL_BIG){
;
L08E3:	lda     _temp1
	cmp     #$05
	beq     L08E6
;
; if(rand8()&1) grid_start--;
;
	jsr     _rand8
	and     #$01
	beq     L08E8
	lda     _temp2
	sec
	sbc     #$01
	sta     _temp2
;
; if(rand8()&1) grid_end++;
;
L08E8:	jsr     _rand8
	and     #$01
	beq     L08F5
	lda     _temp3
	clc
	adc     #$01
	sta     _temp3
;
; }else{
;
	jmp     L08F5
;
; if(grid_start == grid_end) (rand8()&1)?grid_end++:grid_start--;
;
L08E6:	lda     _temp3
	cmp     _temp2
	bne     L08F5
	jsr     _rand8
	and     #$01
	beq     L08F3
	lda     _temp3
	clc
	adc     #$01
	sta     _temp3
	jmp     L08F5
L08F3:	lda     _temp2
	sec
	sbc     #$01
	sta     _temp2
;
; for(i=grid_start; i<=grid_end; i++){
;
L08F5:	lda     _temp2
L0F2F:	sta     _i
	sec
	sbc     _temp3
	bcc     L08FA
	bne     L08F8
;
; next_line[i] = selected_grid;
;
L08FA:	ldy     _i
	lda     _temp1
	sta     _next_line,y
;
; wall_count++;
;
	lda     _wall_count
	clc
	adc     #$01
	sta     _wall_count
;
; for(i=grid_start; i<=grid_end; i++){
;
	lda     _i
	clc
	adc     #$01
	jmp     L0F2F
;
; for(i=2; i<16; i++){
;
L08F8:	lda     #$02
L0F33:	sta     _i
	cmp     #$10
	jcs     L0905
;
; if(next_line[i] == GRASS){
;
	ldy     _i
	lda     _next_line,y
	jne     L0906
;
; if(current_line[i] == WALL_BIG){
;
	ldy     _i
	lda     _current_line,y
	cmp     #$05
	bne     L0910
;
; next_line[i] = WALL;
;
	ldy     _i
	lda     #$01
	sta     _next_line,y
;
; }else{
;
	jmp     L0906
;
; chance_to_grow = ((next_line[i+1]&WALL&(i<13))<<1)+
;
L0910:	ldx     #$00
	lda     _i
	clc
	adc     #$01
	bcc     L091E
	inx
L091E:	sta     ptr1
	txa
	clc
	adc     #>(_next_line)
	sta     ptr1+1
	ldy     #<(_next_line)
	lda     (ptr1),y
	and     #$01
	jsr     pusha0
	lda     _i
	cmp     #$0D
	jsr     boolult
	jsr     tosanda0
	asl     a
	bcc     L0ED7
	ldx     #$01
;
; ((next_line[i-1]&WALL&(i>3))<<1)+
;
L0ED7:	sta     sreg
	stx     sreg+1
	ldx     #$00
	lda     _i
	sec
	sbc     #$01
	bcs     L0923
	dex
L0923:	sta     ptr1
	txa
	clc
	adc     #>(_next_line)
	sta     ptr1+1
	ldy     #<(_next_line)
	lda     (ptr1),y
	and     #$01
	sta     ptr1
	lda     _i
	cmp     #$04
	lda     #$00
	rol     a
	and     ptr1
	ldx     #$00
	asl     a
	bcc     L0F49
	inx
	clc
L0F49:	adc     sreg
;
; ((current_line[i]&WALL)<<1)+
;
	sta     ptr1
;
; ((next_line[i-1]&WALL&(i>3))<<1)+
;
	txa
	adc     sreg+1
;
; ((current_line[i]&WALL)<<1)+
;
	sta     ptr1+1
	ldy     _i
	lda     _current_line,y
	ldx     #$00
	and     #$01
	asl     a
	bcc     L0F02
	inx
	clc
L0F02:	adc     ptr1
;
; ((current_line[i-1]&WALL&(i>3)))+
;
	sta     sreg
;
; ((current_line[i]&WALL)<<1)+
;
	txa
	adc     ptr1+1
;
; ((current_line[i-1]&WALL&(i>3)))+
;
	sta     sreg+1
	ldx     #$00
	lda     _i
	sec
	sbc     #$01
	bcs     L092C
	dex
L092C:	sta     ptr1
	txa
	clc
	adc     #>(_current_line)
	sta     ptr1+1
	ldy     #<(_current_line)
	lda     (ptr1),y
	and     #$01
	sta     ptr1
	lda     _i
	cmp     #$04
	lda     #$00
	rol     a
	and     ptr1
	clc
	adc     sreg
	ldx     sreg+1
	bcc     L0F40
	inx
;
; ((current_line[i+1]&WALL&(i<13)));
;
L0F40:	jsr     pushax
	ldx     #$00
	lda     _i
	clc
	adc     #$01
	bcc     L0931
	inx
L0931:	sta     ptr1
	txa
	clc
	adc     #>(_current_line)
	sta     ptr1+1
	ldy     #<(_current_line)
	lda     (ptr1),y
	and     #$01
	jsr     pusha0
	lda     _i
	cmp     #$0D
	jsr     boolult
	jsr     tosanda0
	jsr     tosadda0
	sta     _temp3
;
; grow_chance_reduction = (wall_count>>2);
;
	ldx     #$00
	lda     _wall_count
	jsr     asrax2
	sta     _temp2
;
; if(chance_to_grow > grow_chance_reduction){
;
	lda     _temp3
	sec
	sbc     _temp2
	bcc     L0936
	beq     L0936
;
; chance_to_grow -= grow_chance_reduction;
;
	lda     _temp2
	eor     #$FF
	sec
	adc     _temp3
;
; } else {
;
	jmp     L0EF4
;
; chance_to_grow = 0;
;
L0936:	lda     #$00
L0EF4:	sta     _temp3
;
; if(chance_to_grow >= 4){
;
	cmp     #$04
;
; }else if(chance_to_grow >= 2){
;
	bcs     L0F66
	lda     _temp3
	cmp     #$02
	bcc     L0947
;
; if(rand8()&1){
;
	jsr     _rand8
	and     #$01
	beq     L0947
;
; next_line[i] = WALL;
;
L0F66:	ldy     _i
	lda     #$01
	sta     _next_line,y
;
; wall_count++;
;
	lda     _wall_count
	clc
	adc     #$01
	sta     _wall_count
;
; chance_to_grow = ((next_line[i+1]==WATER)<<1)+
;
L0947:	ldx     #$00
	lda     _i
	clc
	adc     #$01
	bcc     L0953
	inx
L0953:	sta     ptr1
	txa
	clc
	adc     #>(_next_line)
	sta     ptr1+1
	ldy     #<(_next_line)
	lda     (ptr1),y
	cmp     #$02
	jsr     booleq
	asl     a
	bcc     L0EDA
	inx
;
; ((next_line[i-1]==WATER)<<1)+
;
L0EDA:	jsr     pushax
	ldx     #$00
	lda     _i
	sec
	sbc     #$01
	bcs     L0957
	dex
L0957:	sta     ptr1
	txa
	clc
	adc     #>(_next_line)
	sta     ptr1+1
	ldy     #<(_next_line)
	lda     (ptr1),y
	cmp     #$02
	jsr     booleq
	asl     a
	bcc     L0EDB
	inx
L0EDB:	jsr     tosaddax
;
; ((current_line[i]==WATER)<<1)+
;
	jsr     pushax
	ldy     _i
	lda     _current_line,y
	cmp     #$02
	jsr     booleq
	asl     a
	bcc     L0EDC
	inx
L0EDC:	jsr     tosaddax
;
; ((current_line[i-1]==WATER))+
;
	jsr     pushax
	ldx     #$00
	lda     _i
	sec
	sbc     #$01
	bcs     L095F
	dex
L095F:	sta     ptr1
	txa
	clc
	adc     #>(_current_line)
	sta     ptr1+1
	ldy     #<(_current_line)
	lda     (ptr1),y
	cmp     #$02
	jsr     booleq
	jsr     tosadda0
;
; ((current_line[i+1]==WATER));
;
	jsr     pushax
	ldx     #$00
	lda     _i
	clc
	adc     #$01
	bcc     L0963
	inx
L0963:	sta     ptr1
	txa
	clc
	adc     #>(_current_line)
	sta     ptr1+1
	ldy     #<(_current_line)
	lda     (ptr1),y
	cmp     #$02
	jsr     booleq
	jsr     tosadda0
	sta     _temp3
;
; if(chance_to_grow > grow_chance_reduction){
;
	sec
	sbc     _temp2
	bcc     L0964
	beq     L0964
;
; chance_to_grow -= grow_chance_reduction;
;
	lda     _temp2
	eor     #$FF
	sec
	adc     _temp3
;
; } else {
;
	jmp     L0EF6
;
; chance_to_grow = 0;
;
L0964:	lda     #$00
L0EF6:	sta     _temp3
;
; if(chance_to_grow >= 5){
;
	cmp     #$05
;
; }else if(chance_to_grow >= 3){
;
	bcs     L0F67
	lda     _temp3
	cmp     #$03
	bcc     L0975
;
; if(rand8()&3){
;
	jsr     _rand8
	and     #$03
	beq     L0975
;
; next_line[i] = WATER;
;
L0F67:	ldy     _i
	lda     #$02
	sta     _next_line,y
;
; wall_count++;
;
	lda     _wall_count
	clc
	adc     #$01
	sta     _wall_count
;
; chance_to_grow = ((next_line[i+1]==FOREST)<<1)+
;
L0975:	ldx     #$00
	lda     _i
	clc
	adc     #$01
	bcc     L0981
	inx
L0981:	sta     ptr1
	txa
	clc
	adc     #>(_next_line)
	sta     ptr1+1
	ldy     #<(_next_line)
	lda     (ptr1),y
	cmp     #$04
	jsr     booleq
	asl     a
	bcc     L0EDD
	inx
;
; ((next_line[i-1]==FOREST)<<1)+
;
L0EDD:	jsr     pushax
	ldx     #$00
	lda     _i
	sec
	sbc     #$01
	bcs     L0985
	dex
L0985:	sta     ptr1
	txa
	clc
	adc     #>(_next_line)
	sta     ptr1+1
	ldy     #<(_next_line)
	lda     (ptr1),y
	cmp     #$04
	jsr     booleq
	asl     a
	bcc     L0EDE
	inx
L0EDE:	jsr     tosaddax
;
; ((current_line[i]==FOREST)<<1)+
;
	jsr     pushax
	ldy     _i
	lda     _current_line,y
	cmp     #$04
	jsr     booleq
	asl     a
	bcc     L0EDF
	inx
L0EDF:	jsr     tosaddax
;
; ((current_line[i-1]==FOREST))+
;
	jsr     pushax
	ldx     #$00
	lda     _i
	sec
	sbc     #$01
	bcs     L098D
	dex
L098D:	sta     ptr1
	txa
	clc
	adc     #>(_current_line)
	sta     ptr1+1
	ldy     #<(_current_line)
	lda     (ptr1),y
	cmp     #$04
	jsr     booleq
	jsr     tosadda0
;
; ((current_line[i+1]==FOREST));
;
	jsr     pushax
	ldx     #$00
	lda     _i
	clc
	adc     #$01
	bcc     L0991
	inx
L0991:	sta     ptr1
	txa
	clc
	adc     #>(_current_line)
	sta     ptr1+1
	ldy     #<(_current_line)
	lda     (ptr1),y
	cmp     #$04
	jsr     booleq
	jsr     tosadda0
	sta     _temp3
;
; if(chance_to_grow > grow_chance_reduction){
;
	sec
	sbc     _temp2
	bcc     L0992
	beq     L0992
;
; chance_to_grow -= grow_chance_reduction;
;
	lda     _temp2
	eor     #$FF
	sec
	adc     _temp3
;
; } else {
;
	jmp     L0EF8
;
; chance_to_grow = 0;
;
L0992:	lda     #$00
L0EF8:	sta     _temp3
;
; if(chance_to_grow >= 5){
;
	cmp     #$05
;
; }else if(chance_to_grow >= 3){
;
	bcs     L0F68
	lda     _temp3
	cmp     #$03
	bcc     L0906
;
; if(rand8()&3){
;
	jsr     _rand8
	and     #$03
	beq     L0906
;
; next_line[i] = FOREST;
;
L0F68:	ldy     _i
	lda     #$04
	sta     _next_line,y
;
; wall_count++;
;
	lda     _wall_count
	clc
	adc     #$01
	sta     _wall_count
;
; for(i=2; i<16; i++){
;
L0906:	lda     _i
	clc
	adc     #$01
	jmp     L0F33
;
; for(i=2; i<16; i++){
;
L0905:	lda     #$02
L0F34:	sta     _i
	cmp     #$10
	bcs     L09AB
;
; if(next_line[i] == WALL && (next_line[i-1] == WALL_BIG || next_line[i+1] == WALL_BIG)){
;
	ldy     _i
	lda     _next_line,y
	cmp     #$01
	bne     L09AC
	ldx     #$00
	lda     _i
	sec
	sbc     #$01
	bcs     L09B9
	dex
L09B9:	sta     ptr1
	txa
	clc
	adc     #>(_next_line)
	sta     ptr1+1
	ldy     #<(_next_line)
	lda     (ptr1),y
	cmp     #$05
	beq     L09B3
	ldx     #$00
	lda     _i
	clc
	adc     #$01
	bcc     L09BB
	inx
L09BB:	sta     ptr1
	txa
	clc
	adc     #>(_next_line)
	sta     ptr1+1
	ldy     #<(_next_line)
	lda     (ptr1),y
	cmp     #$05
	bne     L09AC
;
; if(i==2 || i == 15) next_line[i] = GRASS;
;
L09B3:	lda     _i
	cmp     #$02
	beq     L09BF
	lda     _i
	cmp     #$0F
	bne     L09BE
L09BF:	ldy     _i
	lda     #$00
;
; else next_line[i] = WALL_BIG;
;
	jmp     L0EFA
L09BE:	ldy     _i
	lda     #$05
L0EFA:	sta     _next_line,y
;
; for(i=2; i<16; i++){
;
L09AC:	lda     _i
	clc
	adc     #$01
	jmp     L0F34
;
; for(i=2; i<16; i++){
;
L09AB:	lda     #$02
L0F35:	sta     _i
	cmp     #$10
	jcs     L09CB
;
; if(current_line[i] == WALL && 
;
	ldy     _i
	lda     _current_line,y
	cmp     #$01
	jne     L09CC
;
; ((current_line[i-1]&WALL) && (current_line[i+1]&WALL) && 
;
	ldx     #$00
	lda     _i
	sec
	sbc     #$01
	bcs     L09DA
	dex
L09DA:	sta     ptr1
	txa
	clc
	adc     #>(_current_line)
	sta     ptr1+1
	ldy     #<(_current_line)
	lda     (ptr1),y
	and     #$01
	jeq     L09CC
	ldx     #$00
	lda     _i
	clc
	adc     #$01
	bcc     L09DE
	inx
L09DE:	sta     ptr1
	txa
	clc
	adc     #>(_current_line)
	sta     ptr1+1
	ldy     #<(_current_line)
	lda     (ptr1),y
	and     #$01
	jeq     L09CC
;
; (next_line[i]&WALL) && (prev_line[i]&WALL) 
;
	ldy     _i
	lda     _next_line,y
	and     #$01
	jeq     L09CC
	ldy     _i
	lda     _prev_line,y
	and     #$01
;
; && (next_line[i-1]&WALL) && (next_line[i+1]&WALL) 
;
	beq     L09CC
	ldx     #$00
	lda     _i
	sec
	sbc     #$01
	bcs     L09E7
	dex
L09E7:	sta     ptr1
	txa
	clc
	adc     #>(_next_line)
	sta     ptr1+1
	ldy     #<(_next_line)
	lda     (ptr1),y
	and     #$01
	beq     L09CC
	ldx     #$00
	lda     _i
	clc
	adc     #$01
	bcc     L09EA
	inx
L09EA:	sta     ptr1
	txa
	clc
	adc     #>(_next_line)
	sta     ptr1+1
	ldy     #<(_next_line)
	lda     (ptr1),y
	and     #$01
;
; && (prev_line[i-1]&WALL) && (prev_line[i+1]&WALL))
;
	beq     L09CC
	ldx     #$00
	lda     _i
	sec
	sbc     #$01
	bcs     L09ED
	dex
L09ED:	sta     ptr1
	txa
	clc
	adc     #>(_prev_line)
	sta     ptr1+1
	ldy     #<(_prev_line)
	lda     (ptr1),y
	and     #$01
	beq     L09CC
	ldx     #$00
	lda     _i
	clc
	adc     #$01
	bcc     L09F0
	inx
L09F0:	sta     ptr1
	txa
	clc
	adc     #>(_prev_line)
	sta     ptr1+1
	ldy     #<(_prev_line)
	lda     (ptr1),y
	and     #$01
	beq     L09CC
;
; current_line[i] = WALL_GREEN;
;
	ldy     _i
	lda     #$03
	sta     _current_line,y
;
; for(i=2; i<16; i++){
;
L09CC:	lda     _i
	clc
	adc     #$01
	jmp     L0F35
;
; if((current_line[2]&WALL) && (prev_line[2]&WALL) && (next_line[2]&WALL)){
;
L09CB:	lda     _current_line+2
	and     #$01
	beq     L09F7
	lda     _prev_line+2
	and     #$01
	beq     L09F7
	lda     _next_line+2
	and     #$01
	beq     L09F7
;
; current_line[1] = WALL_GREEN;
;
	lda     #$03
	sta     _current_line+1
;
; if((current_line[15]&WALL) && (prev_line[15]&WALL) && (next_line[15]&WALL)){
;
L09F7:	lda     _current_line+15
	and     #$01
	beq     L0A04
	lda     _prev_line+15
	and     #$01
	beq     L0A04
	lda     _next_line+15
	and     #$01
	beq     L0A04
;
; current_line[16] = WALL_GREEN;
;
	lda     #$03
	sta     _current_line+16
;
; for(i=14; i>0; i--){
;
L0A04:	lda     #$0E
L0F36:	sta     _i
	lda     _i
	jeq     L0A12
;
; blocked[i] = blocked[i-1];
;
	ldx     #$00
	lda     _i
	asl     a
	bcc     L0F03
	inx
	clc
L0F03:	adc     #<(_blocked)
	tay
	txa
	adc     #>(_blocked)
	tax
	tya
	jsr     pushax
	ldx     #$00
	lda     _i
	sec
	sbc     #$01
	bcs     L0A1D
	dex
L0A1D:	stx     tmp1
	asl     a
	rol     tmp1
	clc
	adc     #<(_blocked)
	sta     ptr1
	lda     tmp1
	adc     #>(_blocked)
	sta     ptr1+1
	ldy     #$01
	lda     (ptr1),y
	tax
	dey
	lda     (ptr1),y
	jsr     staxspidx
;
; bullet_blocked[i] = bullet_blocked[i-1];
;
	ldx     #$00
	lda     _i
	asl     a
	bcc     L0F04
	inx
	clc
L0F04:	adc     #<(_bullet_blocked)
	tay
	txa
	adc     #>(_bullet_blocked)
	tax
	tya
	jsr     pushax
	ldx     #$00
	lda     _i
	sec
	sbc     #$01
	bcs     L0A22
	dex
L0A22:	stx     tmp1
	asl     a
	rol     tmp1
	clc
	adc     #<(_bullet_blocked)
	sta     ptr1
	lda     tmp1
	adc     #>(_bullet_blocked)
	sta     ptr1+1
	ldy     #$01
	lda     (ptr1),y
	tax
	dey
	lda     (ptr1),y
	jsr     staxspidx
;
; for(i=14; i>0; i--){
;
	lda     _i
	sec
	sbc     #$01
	jmp     L0F36
;
; blocked[0] = 0;
;
L0A12:	sta     _blocked
	sta     _blocked+1
;
; bullet_blocked[0] = 0;
;
	sta     _bullet_blocked
	sta     _bullet_blocked+1
;
; for(i=0; i<16; i++){
;
L0F37:	sta     _i
	cmp     #$10
	bcs     L0A2A
;
; if(current_line[i+1] != GRASS){
;
	ldx     #$00
	lda     _i
	clc
	adc     #$01
	bcc     L0A34
	inx
L0A34:	sta     ptr1
	txa
	clc
	adc     #>(_current_line)
	sta     ptr1+1
	ldy     #<(_current_line)
	lda     (ptr1),y
	beq     L0A2B
;
; blocked[0] |= (1<<i);
;
	lda     _blocked
	ldx     _blocked+1
	jsr     pushax
	lda     #$01
	jsr     pusha0
	lda     _i
	jsr     tosaslax
	jsr     tosorax
	sta     _blocked
	stx     _blocked+1
;
; if(current_line[i+1] != WATER){
;
	ldx     #$00
	lda     _i
	clc
	adc     #$01
	bcc     L0A3C
	inx
L0A3C:	sta     ptr1
	txa
	clc
	adc     #>(_current_line)
	sta     ptr1+1
	ldy     #<(_current_line)
	lda     (ptr1),y
	cmp     #$02
	beq     L0A2B
;
; bullet_blocked[0] |= (1<<i);
;
	lda     _bullet_blocked
	ldx     _bullet_blocked+1
	jsr     pushax
	lda     #$01
	jsr     pusha0
	lda     _i
	jsr     tosaslax
	jsr     tosorax
	sta     _bullet_blocked
	stx     _bullet_blocked+1
;
; for(i=0; i<16; i++){
;
L0A2B:	lda     _i
	clc
	adc     #$01
	jmp     L0F37
;
; for(i=0; i<32; i++){
;
L0A2A:	lda     #$00
L0F3F:	sta     _i
	cmp     #$20
	jcs     L0A42
;
; column_index = 1+(i>>1);
;
	ldx     #$00
	lda     _i
	jsr     asrax1
	clc
	adc     #$01
	sta     _temp3
;
; cell_index = ((((row_index&1)==0)<<1)+(i&1));
;
	lda     _temp0
	and     #$01
	jsr     booleq
	asl     a
	sta     ptr1
	lda     _i
	and     #$01
	clc
	adc     ptr1
	sta     _temp1
;
; switch(current_line[column_index]){
;
	ldy     _temp3
	lda     _current_line,y
;
; }
;
	jeq     L0AE3
	cmp     #$01
	beq     L0A5D
	cmp     #$02
	beq     L0A5D
	cmp     #$03
	jeq     L0AE3
	cmp     #$04
	jeq     L0B46
	cmp     #$05
	jeq     L0AF5
	jmp     L0A43
;
; cell_type = current_line[column_index];
;
L0A5D:	ldy     _temp3
	lda     _current_line,y
	sta     _temp4
;
; if(cell_index&1){
;
	lda     _temp1
	and     #$01
	beq     L0A62
;
; same_neigbour_dirs = (current_line[column_index+1]&cell_type)!=0;
;
	lda     _temp3
	clc
	adc     #$01
	bcc     L0A68
	inx
L0A68:	sta     ptr1
	txa
	clc
	adc     #>(_current_line)
	sta     ptr1+1
	ldy     #<(_current_line)
	lda     (ptr1),y
	sta     ptr1
	lda     _temp4
	and     ptr1
	jsr     boolne
	sta     _temp2
;
; if(cell_index<2){
;
	lda     _temp1
	cmp     #$02
	bcs     L0A6A
;
; same_neigbour_dirs += (((prev_line[column_index+1]&cell_type)!=0)<<2);
;
	lda     _temp3
	clc
	adc     #$01
	bcc     L0A72
	inx
L0A72:	sta     ptr1
	txa
	clc
	adc     #>(_prev_line)
	sta     ptr1+1
	ldy     #<(_prev_line)
	lda     (ptr1),y
	sta     ptr1
	lda     _temp4
	and     ptr1
	jsr     boolne
;
; }else{
;
	jmp     L0F55
;
; same_neigbour_dirs += ((next_line[column_index+1]==cell_type)<<2);
;
L0A6A:	lda     _temp3
	clc
	adc     #$01
	bcc     L0A92
	inx
;
; }else{
;
	jmp     L0A92
;
; same_neigbour_dirs = (current_line[column_index-1]&cell_type)!=0;
;
L0A62:	lda     _temp3
	sec
	sbc     #$01
	bcs     L0A80
	dex
L0A80:	sta     ptr1
	txa
	clc
	adc     #>(_current_line)
	sta     ptr1+1
	ldy     #<(_current_line)
	lda     (ptr1),y
	sta     ptr1
	lda     _temp4
	and     ptr1
	jsr     boolne
	sta     _temp2
;
; if(cell_index<2){
;
	lda     _temp1
	cmp     #$02
	bcs     L0A82
;
; same_neigbour_dirs += (((prev_line[column_index-1]&cell_type)!=0)<<2);
;
	lda     _temp3
	sec
	sbc     #$01
	bcs     L0A8A
	dex
L0A8A:	sta     ptr1
	txa
	clc
	adc     #>(_prev_line)
	sta     ptr1+1
	ldy     #<(_prev_line)
	lda     (ptr1),y
	sta     ptr1
	lda     _temp4
	and     ptr1
	jsr     boolne
;
; }else{
;
	jmp     L0F55
;
; same_neigbour_dirs += ((next_line[column_index-1]==cell_type)<<2);
;
L0A82:	lda     _temp3
	sec
	sbc     #$01
	bcs     L0A92
	dex
L0A92:	sta     ptr1
	txa
	clc
	adc     #>(_next_line)
	sta     ptr1+1
	ldy     #<(_next_line)
	lda     (ptr1),y
	cmp     _temp4
	jsr     booleq
L0F55:	asl     a
	asl     a
	clc
	adc     _temp2
	sta     _temp2
;
; if(cell_index<2){
;
	lda     _temp1
	cmp     #$02
	bcs     L0A93
;
; same_neigbour_dirs += (((prev_line[column_index]&cell_type)!=0)<<1);
;
	ldy     _temp3
	lda     _prev_line,y
	sta     ptr1
	lda     _temp4
	and     ptr1
	jsr     boolne
;
; }else{
;
	jmp     L0F4F
;
; same_neigbour_dirs += ((next_line[column_index]==cell_type)<<1);
;
L0A93:	ldy     _temp3
	lda     _next_line,y
	cmp     _temp4
	jsr     booleq
L0F4F:	asl     a
	clc
	adc     _temp2
	sta     _temp2
;
; if(same_neigbour_dirs == 7){
;
	cmp     #$07
	bne     L0AA4
;
; if(rand8()&15){
;
	jsr     _rand8
	and     #$0F
	beq     L0AA6
;
; update_list[3+i] = (cell_type == WALL?0:0xEC);
;
	ldx     #$00
	lda     _i
	clc
	adc     #$03
	bcc     L0F05
	inx
	clc
L0F05:	adc     #<(_update_list)
	tay
	txa
	adc     #>(_update_list)
	tax
	tya
	jsr     pushax
	lda     _temp4
	cmp     #$01
	bne     L0AAD
	lda     #$00
	jmp     L0F3B
L0AAD:	lda     #$EC
;
; }else{
;
	jmp     L0F3B
;
; update_list[3+i] =  (cell_type == WALL?0x66:0xCC) + (rand8()&3);
;
L0AA6:	tax
	lda     _i
	clc
	adc     #$03
	bcc     L0F06
	inx
	clc
L0F06:	adc     #<(_update_list)
	tay
	txa
	adc     #>(_update_list)
	tax
	tya
	jsr     pushax
	lda     _temp4
	cmp     #$01
	bne     L0AB7
	lda     #$66
	jmp     L0AB9
L0AB7:	lda     #$CC
L0AB9:	jsr     pusha0
	jsr     _rand8
	and     #$03
	jsr     tosadda0
;
; }else{
;
	jmp     L0F3B
;
; if(same_neigbour_dirs>=4) same_neigbour_dirs -= 4;
;
L0AA4:	lda     _temp2
	cmp     #$04
	bcc     L0ABD
	lda     _temp2
	sec
	sbc     #$04
	sta     _temp2
;
; if(cell_type == WALL){
;
L0ABD:	lda     _temp4
	cmp     #$01
	bne     L0AC1
;
; update_list[3+i] = wall_tiles[(cell_index<<2)+same_neigbour_dirs];
;
	lda     _i
	clc
	adc     #$03
	bcc     L0F07
	inx
	clc
L0F07:	adc     #<(_update_list)
	sta     sreg
	txa
	adc     #>(_update_list)
	sta     sreg+1
	ldx     #$00
	lda     _temp1
	jsr     aslax2
	clc
	adc     _temp2
	bcc     L0ED4
	inx
L0ED4:	sta     ptr1
	txa
	clc
	adc     #>(_wall_tiles)
	sta     ptr1+1
	ldy     #<(_wall_tiles)
;
; }else{
;
	jmp     L0F47
;
; update_list[3+i] = water_tiles[(cell_index<<2)+same_neigbour_dirs];
;
L0AC1:	lda     _i
	clc
	adc     #$03
	bcc     L0F08
	inx
	clc
L0F08:	adc     #<(_update_list)
	sta     sreg
	txa
	adc     #>(_update_list)
	sta     sreg+1
	ldx     #$00
	lda     _temp1
	jsr     aslax2
	clc
	adc     _temp2
	bcc     L0ED5
	inx
L0ED5:	sta     ptr1
	txa
	clc
	adc     #>(_water_tiles)
	sta     ptr1+1
	ldy     #<(_water_tiles)
L0F47:	lda     (ptr1),y
	ldy     #$00
	sta     (sreg),y
;
; if(same_neigbour_dirs==1 || same_neigbour_dirs == 2) update_list[3+i] += (rand8()&3);
;
	lda     _temp2
	cmp     #$01
	beq     L0AD1
	lda     _temp2
	cmp     #$02
	bne     L0AD0
L0AD1:	ldx     #$00
	lda     _i
	clc
	adc     #$03
	bcc     L0F09
	inx
	clc
L0F09:	adc     #<(_update_list)
	tay
	txa
	adc     #>(_update_list)
	tax
	tya
	jsr     pushax
	sta     ptr1
	stx     ptr1+1
	ldx     #$00
	lda     (ptr1,x)
	jsr     pusha0
	jsr     _rand8
	and     #$03
	jsr     tosadda0
;
; else if(same_neigbour_dirs==0 && cell_type == WALL) update_list[3+i]  += (rand8()&1);
;
	jmp     L0F3B
L0AD0:	lda     _temp2
	jne     L0A43
	lda     _temp4
	cmp     #$01
	jne     L0A43
	ldx     #$00
	lda     _i
	clc
	adc     #$03
	bcc     L0F0A
	inx
	clc
L0F0A:	adc     #<(_update_list)
	tay
	txa
	adc     #>(_update_list)
	tax
	tya
	jsr     pushax
	sta     ptr1
	stx     ptr1+1
	ldx     #$00
	lda     (ptr1,x)
	jsr     pusha0
	jsr     _rand8
	and     #$01
	jsr     tosadda0
;
; break;
;
	jmp     L0F3B
;
; random = rand8()&0x3F;
;
L0AE3:	jsr     _rand8
	and     #$3F
	sta     _temp4
;
; if(random > 9){
;
	cmp     #$0A
	bcc     L0AE8
;
; update_list[3+i] = 0;
;
	ldx     #$00
	lda     _i
	clc
	adc     #$03
	bcc     L0F0B
	inx
	clc
L0F0B:	adc     #<(_update_list)
	sta     ptr1
	txa
	adc     #>(_update_list)
	sta     ptr1+1
	lda     #$00
	tay
	sta     (ptr1),y
;
; }else{
;
	jmp     L0A43
;
; update_list[3+i] = 0x60 + random;
;
L0AE8:	ldx     #$00
	lda     _i
	clc
	adc     #$03
	bcc     L0F0C
	inx
	clc
L0F0C:	adc     #<(_update_list)
	sta     ptr1
	txa
	adc     #>(_update_list)
	sta     ptr1+1
	lda     _temp4
	clc
	adc     #$60
	ldy     #$00
	sta     (ptr1),y
;
; break;
;
	jmp     L0A43
;
; switch(cell_index){
;
L0AF5:	lda     _temp1
;
; }
;
	beq     L0AFA
	cmp     #$01
	beq     L0B0D
	cmp     #$02
	jeq     L0B20
	cmp     #$03
	jeq     L0B33
	jmp     L0A43
;
; if(current_line[column_index-1] != WALL_BIG){
;
L0AFA:	lda     _temp3
	sec
	sbc     #$01
	bcs     L0AFE
	dex
L0AFE:	sta     ptr1
	txa
	clc
	adc     #>(_current_line)
	sta     ptr1+1
	ldy     #<(_current_line)
	lda     (ptr1),y
	cmp     #$05
	beq     L0AFB
;
; update_list[3+i] = 0xA4 + (rand8()&1);
;
	ldx     #$00
	lda     _i
	clc
	adc     #$03
	bcc     L0F0D
	inx
	clc
L0F0D:	adc     #<(_update_list)
	tay
	txa
	adc     #>(_update_list)
	tax
	tya
	jsr     pushax
	jsr     _rand8
	and     #$01
	clc
	adc     #$A4
;
; }else{
;
	jmp     L0F3B
;
; update_list[3+i] = 0x88 + (rand8()&3);
;
L0AFB:	ldx     #$00
	lda     _i
	clc
	adc     #$03
	bcc     L0F0E
	inx
	clc
L0F0E:	adc     #<(_update_list)
	tay
	txa
	adc     #>(_update_list)
	tax
	tya
	jsr     pushax
	jsr     _rand8
	and     #$03
	clc
	adc     #$88
;
; break;
;
	jmp     L0F3B
;
; if(current_line[column_index+1] != WALL_BIG){
;
L0B0D:	lda     _temp3
	clc
	adc     #$01
	bcc     L0B11
	inx
L0B11:	sta     ptr1
	txa
	clc
	adc     #>(_current_line)
	sta     ptr1+1
	ldy     #<(_current_line)
	lda     (ptr1),y
	cmp     #$05
	beq     L0B0E
;
; update_list[3+i] = 0xA6 + (rand8()&1);
;
	ldx     #$00
	lda     _i
	clc
	adc     #$03
	bcc     L0F0F
	inx
	clc
L0F0F:	adc     #<(_update_list)
	tay
	txa
	adc     #>(_update_list)
	tax
	tya
	jsr     pushax
	jsr     _rand8
	and     #$01
	clc
	adc     #$A6
;
; }else{
;
	jmp     L0F3B
;
; update_list[3+i] = 0x88 + (rand8()&3);
;
L0B0E:	ldx     #$00
	lda     _i
	clc
	adc     #$03
	bcc     L0F10
	inx
	clc
L0F10:	adc     #<(_update_list)
	tay
	txa
	adc     #>(_update_list)
	tax
	tya
	jsr     pushax
	jsr     _rand8
	and     #$03
	clc
	adc     #$88
;
; break;
;
	jmp     L0F3B
;
; if(current_line[column_index-1] != WALL_BIG){
;
L0B20:	lda     _temp3
	sec
	sbc     #$01
	bcs     L0B24
	dex
L0B24:	sta     ptr1
	txa
	clc
	adc     #>(_current_line)
	sta     ptr1+1
	ldy     #<(_current_line)
	lda     (ptr1),y
	cmp     #$05
	beq     L0B21
;
; update_list[3+i] = 0x94 + (rand8()&1);
;
	ldx     #$00
	lda     _i
	clc
	adc     #$03
	bcc     L0F11
	inx
	clc
L0F11:	adc     #<(_update_list)
	tay
	txa
	adc     #>(_update_list)
	tax
	tya
	jsr     pushax
	jsr     _rand8
	and     #$01
	clc
	adc     #$94
;
; }else{
;
	jmp     L0F3B
;
; update_list[3+i] = 0x78 + (rand8()&3);
;
L0B21:	ldx     #$00
	lda     _i
	clc
	adc     #$03
	bcc     L0F12
	inx
	clc
L0F12:	adc     #<(_update_list)
	tay
	txa
	adc     #>(_update_list)
	tax
	tya
	jsr     pushax
	jsr     _rand8
	and     #$03
	clc
	adc     #$78
;
; break;
;
	jmp     L0F3B
;
; if(current_line[column_index+1] != WALL_BIG){
;
L0B33:	lda     _temp3
	clc
	adc     #$01
	bcc     L0B37
	inx
L0B37:	sta     ptr1
	txa
	clc
	adc     #>(_current_line)
	sta     ptr1+1
	ldy     #<(_current_line)
	lda     (ptr1),y
	cmp     #$05
	beq     L0B34
;
; update_list[3+i] = 0x96 + (rand8()&1);
;
	ldx     #$00
	lda     _i
	clc
	adc     #$03
	bcc     L0F13
	inx
	clc
L0F13:	adc     #<(_update_list)
	tay
	txa
	adc     #>(_update_list)
	tax
	tya
	jsr     pushax
	jsr     _rand8
	and     #$01
	clc
	adc     #$96
;
; }else{
;
	jmp     L0F3B
;
; update_list[3+i] = 0x78 + (rand8()&3);
;
L0B34:	ldx     #$00
	lda     _i
	clc
	adc     #$03
	bcc     L0F14
	inx
	clc
L0F14:	adc     #<(_update_list)
	tay
	txa
	adc     #>(_update_list)
	tax
	tya
	jsr     pushax
	jsr     _rand8
	and     #$03
	clc
	adc     #$78
;
; break;
;
	jmp     L0F3B
;
; neighbour_forest_count = 0;
;
L0B46:	stx     _temp2
;
; switch(cell_index){
;
	lda     _temp1
;
; }
;
	beq     L0B4D
	cmp     #$01
	beq     L0B5B
	cmp     #$02
	jeq     L0B69
	cmp     #$03
	jeq     L0B77
	jmp     L0B4B
;
; update_list[3+i] = 0x4;
;
L0B4D:	lda     _i
	clc
	adc     #$03
	bcc     L0F15
	inx
	clc
L0F15:	adc     #<(_update_list)
	sta     ptr1
	txa
	adc     #>(_update_list)
	sta     ptr1+1
	lda     #$04
	ldy     #$00
	sta     (ptr1),y
;
; neighbour_forest_count += current_line[column_index-1] == FOREST;
;
	ldx     #$00
	lda     _temp3
	sec
	sbc     #$01
	bcs     L0B55
	dex
L0B55:	sta     ptr1
	txa
	clc
	adc     #>(_current_line)
	sta     ptr1+1
	ldy     #<(_current_line)
	lda     (ptr1),y
	cmp     #$04
	jsr     booleq
	clc
	adc     _temp2
	sta     _temp2
;
; neighbour_forest_count += prev_line[column_index] == FOREST;
;
	ldy     _temp3
	lda     _prev_line,y
;
; break;
;
	jmp     L0F56
;
; update_list[3+i] = 0x5;
;
L0B5B:	lda     _i
	clc
	adc     #$03
	bcc     L0F16
	inx
	clc
L0F16:	adc     #<(_update_list)
	sta     ptr1
	txa
	adc     #>(_update_list)
	sta     ptr1+1
	lda     #$05
	ldy     #$00
	sta     (ptr1),y
;
; neighbour_forest_count += current_line[column_index+1] == FOREST;
;
	ldx     #$00
	lda     _temp3
	clc
	adc     #$01
	bcc     L0B63
	inx
L0B63:	sta     ptr1
	txa
	clc
	adc     #>(_current_line)
	sta     ptr1+1
	ldy     #<(_current_line)
	lda     (ptr1),y
	cmp     #$04
	jsr     booleq
	clc
	adc     _temp2
	sta     _temp2
;
; neighbour_forest_count += prev_line[column_index] == FOREST;
;
	ldy     _temp3
	lda     _prev_line,y
;
; break;
;
	jmp     L0F56
;
; update_list[3+i] = 0x6;
;
L0B69:	lda     _i
	clc
	adc     #$03
	bcc     L0F17
	inx
	clc
L0F17:	adc     #<(_update_list)
	sta     ptr1
	txa
	adc     #>(_update_list)
	sta     ptr1+1
	lda     #$06
	ldy     #$00
	sta     (ptr1),y
;
; neighbour_forest_count += current_line[column_index-1] == FOREST;
;
	ldx     #$00
	lda     _temp3
	sec
	sbc     #$01
	bcs     L0B7F
	dex
;
; break;
;
	jmp     L0B7F
;
; update_list[3+i] = 0x7;
;
L0B77:	lda     _i
	clc
	adc     #$03
	bcc     L0F18
	inx
	clc
L0F18:	adc     #<(_update_list)
	sta     ptr1
	txa
	adc     #>(_update_list)
	sta     ptr1+1
	lda     #$07
	ldy     #$00
	sta     (ptr1),y
;
; neighbour_forest_count += current_line[column_index+1] == FOREST;
;
	ldx     #$00
	lda     _temp3
	clc
	adc     #$01
	bcc     L0B7F
	inx
L0B7F:	sta     ptr1
	txa
	clc
	adc     #>(_current_line)
	sta     ptr1+1
	ldy     #<(_current_line)
	lda     (ptr1),y
	cmp     #$04
	jsr     booleq
	clc
	adc     _temp2
	sta     _temp2
;
; neighbour_forest_count += next_line[column_index] == FOREST;
;
	ldy     _temp3
	lda     _next_line,y
L0F56:	cmp     #$04
	jsr     booleq
	clc
	adc     _temp2
	sta     _temp2
;
; cell_can_be_cleared = 0;
;
L0B4B:	stx     _temp4
;
; if(cell_index == ((last_row_index + column_index)&3)){
;
	lda     _temp1
	jsr     pusha0
	lda     _last_row_index
	clc
	adc     _temp3
	and     #$03
	jsr     tosicmp0
	bne     L0B93
;
; if(neighbour_forest_count == 0){
;
	lda     _temp2
	bne     L0B8A
;
; cell_can_be_cleared = 1;
;
	lda     #$01
;
; }else if(neighbour_forest_count==1){
;
	jmp     L0F01
L0B8A:	lda     _temp2
	cmp     #$01
	bne     L0B8F
;
; cell_can_be_cleared = rand8() < 120;
;
	jsr     _rand8
	cmp     #$78
;
; }else{
;
	jmp     L0F3E
;
; cell_can_be_cleared = rand8() < 60;
;
L0B8F:	jsr     _rand8
	cmp     #$3C
L0F3E:	jsr     boolult
L0F01:	sta     _temp4
;
; if(cell_can_be_cleared){
;
L0B93:	lda     _temp4
	beq     L0B96
;
; random = rand8()&0x3F;
;
	jsr     _rand8
	and     #$3F
	sta     _temp1
;
; if(random > 9){
;
	cmp     #$0A
	bcc     L0B9A
;
; update_list[3+i] = 0;
;
	ldx     #$00
	lda     _i
	clc
	adc     #$03
	bcc     L0F19
	inx
	clc
L0F19:	adc     #<(_update_list)
	sta     ptr1
	txa
	adc     #>(_update_list)
	sta     ptr1+1
	lda     #$00
	tay
	sta     (ptr1),y
;
; }else{
;
	jmp     L0A43
;
; update_list[3+i] = 0x60 + random;
;
L0B9A:	ldx     #$00
	lda     _i
	clc
	adc     #$03
	bcc     L0F1A
	inx
	clc
L0F1A:	adc     #<(_update_list)
	sta     ptr1
	txa
	adc     #>(_update_list)
	sta     ptr1+1
	lda     _temp1
	clc
	adc     #$60
	ldy     #$00
	sta     (ptr1),y
;
; }else{
;
	jmp     L0A43
;
; if((cell_index < 2 && neighbour_forest_count <= 1 && (rand8()&3)) || (rand8()&3) == 0){
;
L0B96:	lda     _temp1
	cmp     #$02
	bcs     L0EEE
	lda     _temp2
	cmp     #$02
	bcs     L0EEE
	jsr     _rand8
	and     #$03
	bne     L0BA8
L0EEE:	jsr     _rand8
	and     #$03
	bne     L0BA7
;
; update_list[3+i] = 0xB8 + (rand8()&3);
;
L0BA8:	ldx     #$00
	lda     _i
	clc
	adc     #$03
	bcc     L0F1B
	inx
	clc
L0F1B:	adc     #<(_update_list)
	tay
	txa
	adc     #>(_update_list)
	tax
	tya
	jsr     pushax
	jsr     _rand8
	and     #$03
	clc
	adc     #$B8
;
; } else {
;
	jmp     L0F3B
;
; update_list[3+i] = 0xA8 + (rand8()&3);
;
L0BA7:	ldx     #$00
	lda     _i
	clc
	adc     #$03
	bcc     L0F1C
	inx
	clc
L0F1C:	adc     #<(_update_list)
	tay
	txa
	adc     #>(_update_list)
	tax
	tya
	jsr     pushax
	jsr     _rand8
	and     #$03
	clc
	adc     #$A8
L0F3B:	ldy     #$00
	jsr     staspidx
;
; for(i=0; i<32; i++){
;
L0A43:	lda     _i
	clc
	adc     #$01
	jmp     L0F3F
;
; if( (row_index&1) != 0){
;
L0A42:	lda     _temp0
	and     #$01
	jeq     L0BBD
;
; if(row_index == 29){
;
	lda     _temp0
	cmp     #$1D
	jne     L0BC1
;
; for(i=0;i<8;++i){
;
	lda     #$00
	sta     _i
L0BC3:	lda     _i
	cmp     #$08
	jcs     L0C0E
;
; update_list[38+i] = (bg_colors[current_line[1 + (i<<1)]] | (bg_colors[current_line[1 + (i<<1)+1]]<<2));
;
	ldx     #$00
	lda     _i
	clc
	adc     #$26
	bcc     L0F1D
	inx
	clc
L0F1D:	adc     #<(_update_list)
	sta     ptr2
	txa
	adc     #>(_update_list)
	sta     ptr2+1
	ldx     #$00
	lda     _i
	asl     a
	bcc     L0F1E
	inx
	clc
L0F1E:	adc     #$01
	bcc     L0BD3
	inx
L0BD3:	sta     ptr1
	txa
	clc
	adc     #>(_current_line)
	sta     ptr1+1
	ldy     #<(_current_line)
	lda     (ptr1),y
	sta     ptr1
	lda     #$00
	clc
	adc     #>(_bg_colors)
	sta     ptr1+1
	ldy     #<(_bg_colors)
	lda     (ptr1),y
	sta     sreg
	ldx     #$00
	lda     _i
	asl     a
	bcc     L0F1F
	inx
	clc
L0F1F:	adc     #$01
	bcc     L0F20
	inx
	clc
L0F20:	adc     #$01
	bcc     L0BD9
	inx
L0BD9:	sta     ptr1
	txa
	clc
	adc     #>(_current_line)
	sta     ptr1+1
	ldy     #<(_current_line)
	lda     (ptr1),y
	sta     ptr1
	lda     #$00
	clc
	adc     #>(_bg_colors)
	sta     ptr1+1
	ldy     #<(_bg_colors)
	ldx     #$00
	lda     (ptr1),y
	jsr     aslax2
	ora     sreg
	ldy     #$00
	sta     (ptr2),y
;
; for(i=0;i<8;++i){
;
	inc     _i
	jmp     L0BC3
;
; }else if( (row_index&3) == 3 ){
;
L0BC1:	lda     _temp0
	and     #$03
	cmp     #$03
	jne     L0BDB
;
; for(i=0;i<8;++i){
;
	lda     #$00
	sta     _i
L0BDF:	lda     _i
	cmp     #$08
	jcs     L0C0E
;
; update_list[38+i] = (bg_colors[current_line[1 + (i<<1)]] | (bg_colors[current_line[1 + (i<<1)+1]]<<2))<<4;
;
	ldx     #$00
	lda     _i
	clc
	adc     #$26
	bcc     L0F21
	inx
	clc
L0F21:	adc     #<(_update_list)
	sta     ptr2
	txa
	adc     #>(_update_list)
	sta     ptr2+1
	ldx     #$00
	lda     _i
	asl     a
	bcc     L0F22
	inx
	clc
L0F22:	adc     #$01
	bcc     L0BEF
	inx
L0BEF:	sta     ptr1
	txa
	clc
	adc     #>(_current_line)
	sta     ptr1+1
	ldy     #<(_current_line)
	lda     (ptr1),y
	sta     ptr1
	lda     #$00
	clc
	adc     #>(_bg_colors)
	sta     ptr1+1
	ldy     #<(_bg_colors)
	lda     (ptr1),y
	sta     sreg
	ldx     #$00
	lda     _i
	asl     a
	bcc     L0F23
	inx
	clc
L0F23:	adc     #$01
	bcc     L0F24
	inx
	clc
L0F24:	adc     #$01
	bcc     L0BF5
	inx
L0BF5:	sta     ptr1
	txa
	clc
	adc     #>(_current_line)
	sta     ptr1+1
	ldy     #<(_current_line)
	lda     (ptr1),y
	sta     ptr1
	lda     #$00
	clc
	adc     #>(_bg_colors)
	sta     ptr1+1
	ldy     #<(_bg_colors)
	ldx     #$00
	lda     (ptr1),y
	jsr     aslax2
	ora     sreg
	asl     a
	asl     a
	asl     a
	asl     a
	ldy     #$00
	sta     (ptr2),y
;
; for(i=0;i<8;++i){
;
	inc     _i
	jmp     L0BDF
;
; for(i=0;i<8;++i){
;
L0BDB:	lda     #$00
	sta     _i
L0BF7:	lda     _i
	cmp     #$08
	jcs     L0C0E
;
; update_list[38+i] += (bg_colors[current_line[1 + (i<<1)]] | (bg_colors[current_line[1 + (i<<1)+1]]<<2));
;
	ldx     #$00
	lda     _i
	clc
	adc     #$26
	bcc     L0F25
	inx
	clc
L0F25:	adc     #<(_update_list)
	tay
	txa
	adc     #>(_update_list)
	tax
	tya
	jsr     pushax
	sta     ptr1
	stx     ptr1+1
	ldx     #$00
	lda     (ptr1,x)
	sta     ptr2
	lda     _i
	asl     a
	bcc     L0F26
	inx
	clc
L0F26:	adc     #$01
	bcc     L0C07
	inx
L0C07:	sta     ptr1
	txa
	clc
	adc     #>(_current_line)
	sta     ptr1+1
	ldy     #<(_current_line)
	lda     (ptr1),y
	sta     ptr1
	lda     #$00
	clc
	adc     #>(_bg_colors)
	sta     ptr1+1
	ldy     #<(_bg_colors)
	lda     (ptr1),y
	sta     sreg
	ldx     #$00
	lda     _i
	asl     a
	bcc     L0F27
	inx
	clc
L0F27:	adc     #$01
	bcc     L0F28
	inx
	clc
L0F28:	adc     #$01
	bcc     L0C0D
	inx
L0C0D:	sta     ptr1
	txa
	clc
	adc     #>(_current_line)
	sta     ptr1+1
	ldy     #<(_current_line)
	lda     (ptr1),y
	sta     ptr1
	lda     #$00
	clc
	adc     #>(_bg_colors)
	sta     ptr1+1
	ldy     #<(_bg_colors)
	ldx     #$00
	lda     (ptr1),y
	jsr     aslax2
	ora     sreg
	clc
	adc     ptr2
	ldy     #$00
	jsr     staspidx
;
; for(i=0;i<8;++i){
;
	inc     _i
	jmp     L0BF7
;
; current_line[1] = WALL;
;
L0BBD:	lda     #$01
	sta     _current_line+1
;
; current_line[16] = WALL;
;
	sta     _current_line+16
;
; scroll(0, scr);
;
L0C0E:	jsr     push0
	lda     _scr
	ldx     _scr+1
	jmp     _scroll

.endproc

; ---------------------------------------------------------------
; void __near__ reset (void)
; ---------------------------------------------------------------

.segment	"CODE"

.proc	_reset: near

.segment	"CODE"

;
; craft_x[0]=78;
;
	lda     #$4E
	sta     _craft_x
;
; craft_y[0]=180;
;
	lda     #$B4
	sta     _craft_y
;
; craft_x[1]=178;
;
	lda     #$B2
	sta     _craft_x+1
;
; craft_y[1]=180;
;
	lda     #$B4
	sta     _craft_y+1
;
; wall_hit_x[0] = 255;
;
	lda     #$FF
	sta     _wall_hit_x
;
; wall_hit_x[1] = 255;
;
	sta     _wall_hit_x+1
;
; wall_hit_hp[0] = 0;
;
	lda     #$00
	sta     _wall_hit_hp
;
; wall_hit_hp[1] = 0;
;
	sta     _wall_hit_hp+1
;
; sprite_dirs[0] = DIR_UP;
;
	lda     #$01
	sta     _sprite_dirs
;
; sprite_dirs[1] = DIR_UP;
;
	sta     _sprite_dirs+1
;
; sprite_look_dirs[0] = 0;
;
	lda     #$00
	sta     _sprite_look_dirs
;
; sprite_look_dirs[1] = 0;
;
	sta     _sprite_look_dirs+1
;
; craft_types[0] = 0;
;
	sta     _craft_types
;
; craft_types[1] = 1;
;
	lda     #$01
	sta     _craft_types+1
;
; craft_bullet_timers[0] = 0;
;
	lda     #$00
	sta     _craft_bullet_timers
;
; craft_bullet_timers[1] = 0;
;
	sta     _craft_bullet_timers+1
;
; for(i=0; i<18; i++){
;
L0F7D:	sta     _i
	cmp     #$12
	bcs     L0C4A
;
; next_line[i] = current_line[i] = prev_line[i] = GRASS;
;
	lda     #<(_next_line)
	ldx     #>(_next_line)
	clc
	adc     _i
	bcc     L0C53
	inx
L0C53:	jsr     pushax
	lda     #<(_current_line)
	ldx     #>(_current_line)
	clc
	adc     _i
	bcc     L0C56
	inx
L0C56:	jsr     pushax
	ldy     _i
	lda     #$00
	sta     _prev_line,y
	tay
	jsr     staspidx
	tay
	jsr     staspidx
;
; for(i=0; i<18; i++){
;
	lda     _i
	clc
	adc     #$01
	jmp     L0F7D
;
; next_line[0] = next_line[1] = WALL;
;
L0C4A:	lda     #$01
	sta     _next_line+1
	sta     _next_line
;
; next_line[16] = next_line[17] = WALL;
;
	sta     _next_line+17
	sta     _next_line+16
;
; current_line[0] = WALL_GREEN;
;
	lda     #$03
	sta     _current_line
;
; current_line[1] = WALL;
;
	lda     #$01
	sta     _current_line+1
;
; current_line[16] = WALL;
;
	sta     _current_line+16
;
; current_line[17] = WALL_GREEN;
;
	lda     #$03
	sta     _current_line+17
;
; prev_line[0] = prev_line[1] = WALL;
;
	lda     #$01
	sta     _prev_line+1
	sta     _prev_line
;
; prev_line[16] = prev_line[17] = WALL;
;
	sta     _prev_line+17
	sta     _prev_line+16
;
; wall_count = 50;
;
	lda     #$32
	sta     _wall_count
;
; has_big_wall = 0;
;
	lda     #$00
	sta     _has_big_wall
;
; debug_info_val = 0;
;
	sta     $00FA
;
; break_points_enable_val = 0;
;
	sta     $00FB
;
; break_point_val = 0;
;
	sta     $00FF
;
; for(i=0; i<6; i++){
;
L0F7E:	sta     _i
	cmp     #$06
	bcs     L0C89
;
; craft_flags[i] = 0;
;
	ldy     _i
	lda     #$00
	sta     _craft_flags,y
;
; for(i=0; i<6; i++){
;
	lda     _i
	clc
	adc     #$01
	jmp     L0F7E
;
; for(i=0; i<ENEMY_BULLET_COUNT; i++){
;
L0C89:	lda     #$00
L0F7F:	sta     _i
	cmp     #$0C
	bcs     L0C95
;
; craft_bullet_y[i] = 255;
;
	ldy     _i
	lda     #$FF
	sta     _craft_bullet_y,y
;
; for(i=0; i<ENEMY_BULLET_COUNT; i++){
;
	lda     _i
	clc
	adc     #$01
	jmp     L0F7F
;
; for(i=0; i<15; i++){
;
L0C95:	lda     #$00
L0F80:	sta     _i
	cmp     #$0F
	bcs     L0CA1
;
; blocked[i] = 0;
;
	ldx     #$00
	lda     _i
	asl     a
	bcc     L0F7B
	inx
	clc
L0F7B:	adc     #<(_blocked)
	sta     ptr1
	txa
	adc     #>(_blocked)
	sta     ptr1+1
	lda     #$00
	tay
	sta     (ptr1),y
	iny
	sta     (ptr1),y
;
; bullet_blocked[i] = 0;
;
	tax
	lda     _i
	asl     a
	bcc     L0F7C
	inx
	clc
L0F7C:	adc     #<(_bullet_blocked)
	sta     ptr1
	txa
	adc     #>(_bullet_blocked)
	sta     ptr1+1
	lda     #$00
	dey
	sta     (ptr1),y
	iny
	sta     (ptr1),y
;
; for(i=0; i<15; i++){
;
	lda     _i
	clc
	adc     #$01
	jmp     L0F80
;
; }
;
L0CA1:	rts

.endproc

; ---------------------------------------------------------------
; void __near__ tick_enemies (void)
; ---------------------------------------------------------------

.segment	"CODE"

.proc	_tick_enemies: near

.segment	"CODE"

;
; for(i=2; i<6; i++){
;
	lda     #$02
L0F88:	sta     _i
	cmp     #$06
	bcc     L0F89
;
; }
;
	rts
;
; if(craft_types[i] == 255){
;
L0F89:	ldy     _i
	lda     _craft_types,y
	cmp     #$FF
	jne     L0CB7
;
; if(enemy_spawn_scr == 0){
;
	lda     _enemy_spawn_scr
	jne     L0CE9
;
; enemy_spawn_scr = 32 + (rand8()&31);
;
	jsr     _rand8
	and     #$1F
	clc
	adc     #$20
	sta     _enemy_spawn_scr
;
; spawn_x = rand8()&15;
;
	jsr     _rand8
	and     #$0F
L0F84:	sta     _temp5
;
; while((blocked[0] & (1<<spawn_x))){
;
L0CC3:	lda     _blocked
	ldx     _blocked+1
	jsr     pushax
	lda     #$01
	jsr     pusha0
	lda     _temp5
	jsr     tosaslax
	jsr     tosandax
	stx     tmp1
	ora     tmp1
	beq     L0CC4
;
; spawn_x++;
;
	lda     _temp5
	clc
	adc     #$01
	sta     _temp5
;
; if(spawn_x == 16) spawn_x = 0;
;
	cmp     #$10
	bne     L0CC3
	lda     #$00
;
; }                    
;
	jmp     L0F84
;
; new_x = spawn_x*16 + (rand8()&7);
;
L0CC4:	tax
	lda     _temp5
	jsr     shlax4
	jsr     pushax
	jsr     _rand8
	and     #$07
	jsr     tosadda0
	sta     _temp2
;
; new_y = 0;
;
	lda     #$00
	sta     _temp3
;
; move_dir = DIR_DOWN;
;
	lda     #$04
	sta     _temp1
;
; sprite_look_dirs[i] = 0;
;
	ldy     _i
	lda     #$00
	sta     _sprite_look_dirs,y
;
; craft_types[i] = 1;
;
	ldy     _i
	lda     #$01
	sta     _craft_types,y
;
; craft_flags[i] = 15;
;
	ldy     _i
	lda     #$0F
	sta     _craft_flags,y
;
; craft_hps[i] = 2;
;
	ldy     _i
	lda     #$02
	sta     _craft_hps,y
;
; craft_bullet_timers[i] = rand8()&127;
;
	lda     #<(_craft_bullet_timers)
	ldx     #>(_craft_bullet_timers)
	clc
	adc     _i
	bcc     L0CE7
	inx
L0CE7:	jsr     pushax
	jsr     _rand8
	and     #$7F
	ldy     #$00
	jsr     staspidx
;
; else
;
	jmp     L0CE9
;
; move_dir = sprite_dirs[i];
;
L0CB7:	ldy     _i
	lda     _sprite_dirs,y
	sta     _temp1
;
; new_x = craft_x[i];
;
	ldy     _i
	lda     _craft_x,y
	sta     _temp2
;
; new_y = craft_y[i];
;
	ldy     _i
	lda     _craft_y,y
	sta     _temp3
;
; if((frame+i)&3){
;
	lda     _frame
	clc
	adc     _i
	and     #$03
	jeq     L0CF6
;
; if(frame&3){
;
	lda     _frame
	and     #$03
	beq     L0CFE
;
; if(move_dir&DIR_LEFT){
;
	lda     _temp1
	and     #$08
	beq     L0CFB
;
; new_x--;
;
	lda     _temp2
	sec
	sbc     #$01
	sta     _temp2
;
; if(move_dir&DIR_RIGHT){
;
L0CFB:	lda     _temp1
	and     #$02
	beq     L0CFE
;
; new_x++;
;
	lda     _temp2
	clc
	adc     #$01
	sta     _temp2
;
; if((frame&3) != 1){
;
L0CFE:	lda     _frame
	and     #$03
	cmp     #$01
	beq     L0D01
;
; if(move_dir&DIR_UP){
;
	lda     _temp1
	and     #$01
	beq     L0D05
;
; new_y--;
;
	lda     _temp3
	sec
	sbc     #$01
	sta     _temp3
;
; if(move_dir&DIR_DOWN){
;
L0D05:	lda     _temp1
	and     #$04
	beq     L0D01
;
; new_y++;
;
	lda     _temp3
	clc
	adc     #$01
	sta     _temp3
;
; move_reset = craft_flags[i]&15;
;
L0D01:	ldy     _i
	lda     _craft_flags,y
	and     #$0F
	sta     _temp4
;
; if(move_reset && (frame & 7) == 0){
;
	lda     _temp4
	beq     L0D0F
	lda     _frame
	and     #$07
	bne     L0D0F
;
; craft_flags[i]--;
;
	lda     #<(_craft_flags)
	ldx     #>(_craft_flags)
	clc
	adc     _i
	bcc     L0D17
	inx
L0D17:	sta     sreg
	stx     sreg+1
	sta     ptr1
	stx     ptr1+1
	ldy     #$00
	lda     (ptr1),y
	sec
	sbc     #$01
	sta     (sreg),y
;
; if(move_reset == 0 || (new_y < 20 && move_dir == DIR_UP) || (new_y > 220 && move_dir == DIR_DOWN)|| isFreeIn(new_x, new_y) == FALSE){
;
L0D0F:	lda     _temp4
	beq     L0D19
	lda     _temp3
	cmp     #$14
	bcs     L0F82
	lda     _temp1
	cmp     #$01
	beq     L0D19
L0F82:	lda     _temp3
	cmp     #$DD
	bcc     L0F83
	lda     _temp1
	cmp     #$04
	beq     L0D19
L0F83:	lda     _temp2
	jsr     pusha
	lda     _temp3
	jsr     _isFreeIn
	cmp     #$00
	jne     L0CF6
;
; new_x = craft_x[i];
;
L0D19:	ldy     _i
	lda     _craft_x,y
	sta     _temp2
;
; new_y = craft_y[i];
;
	ldy     _i
	lda     _craft_y,y
	sta     _temp3
;
; if(isFreeIn(new_x, new_y-1) == FALSE){
;
	lda     _temp2
	jsr     pusha
	lda     _temp3
	sec
	sbc     #$01
	jsr     _isFreeIn
	cmp     #$00
	bne     L0D2B
;
; move_dir |= DIR_UP;
;
	lda     _temp1
	ora     #$01
	sta     _temp1
;
; if(isFreeIn(new_x, new_y+1) == FALSE){
;
L0D2B:	lda     _temp2
	jsr     pusha
	lda     _temp3
	clc
	adc     #$01
	jsr     _isFreeIn
	cmp     #$00
	bne     L0D32
;
; move_dir |= DIR_DOWN;
;
	lda     _temp1
	ora     #$04
	sta     _temp1
;
; if(isFreeIn(new_x-1, new_y) == FALSE){
;
L0D32:	lda     _temp2
	sec
	sbc     #$01
	jsr     pusha
	lda     _temp3
	jsr     _isFreeIn
	cmp     #$00
	bne     L0D39
;
; move_dir |= DIR_LEFT;
;
	lda     _temp1
	ora     #$08
	sta     _temp1
;
; if(isFreeIn(new_x+1, new_y) == FALSE){
;
L0D39:	lda     _temp2
	clc
	adc     #$01
	jsr     pusha
	lda     _temp3
	jsr     _isFreeIn
	cmp     #$00
	bne     L0D40
;
; move_dir |= DIR_RIGHT;
;
	lda     _temp1
	ora     #$02
	sta     _temp1
;
; if(new_y < 20){
;
L0D40:	lda     _temp3
	cmp     #$14
	bcs     L0D47
;
; move_dir |= DIR_UP;
;
	lda     _temp1
	ora     #$01
	sta     _temp1
;
; if(new_y > 220){
;
L0D47:	lda     _temp3
	cmp     #$DD
	bcc     L0D4B
;
; move_dir |= DIR_DOWN;
;
	lda     _temp1
	ora     #$04
	sta     _temp1
;
; craft_flags[i] = (craft_flags[i]&0xF0) + 4 + (rand8()&11);
;
L0D4B:	lda     #<(_craft_flags)
	ldx     #>(_craft_flags)
	clc
	adc     _i
	bcc     L0D51
	inx
L0D51:	jsr     pushax
	ldy     _i
	lda     _craft_flags,y
	ldx     #$00
	and     #$F0
	clc
	adc     #$04
	bcc     L0D56
	inx
L0D56:	jsr     pushax
	jsr     _rand8
	and     #$0B
	jsr     tosadda0
	ldy     #$00
	jsr     staspidx
;
; if(move_dir == 0xF){
;
	lda     _temp1
	cmp     #$0F
	bne     L0D58
;
; craft_types[i] = 255;
;
	ldy     _i
	lda     #$FF
	sta     _craft_types,y
;
; continue;
;
	jmp     L0CB1
;
; }else if(move_dir == 0){
;
L0D58:	lda     _temp1
	bne     L0D5F
;
; move_dir = (1<<(rand8()&3));
;
	lda     #$01
	jsr     pusha0
	jsr     _rand8
	and     #$03
	jsr     tosaslax
;
; } else {
;
	jmp     L0F85
;
; move_dir = rand8()&3;
;
L0D5F:	jsr     _rand8
	and     #$03
	sta     _temp1
;
; sprite_dirs[i] = (1<<(rand8()&3));
;
L0D68:	lda     #<(_sprite_dirs)
	ldx     #>(_sprite_dirs)
	clc
	adc     _i
	bcc     L0D6D
	inx
L0D6D:	jsr     pushax
	lda     #$01
	jsr     pusha0
	jsr     _rand8
	and     #$03
	jsr     tosaslax
	ldy     #$00
	jsr     staspidx
;
; }while(sprite_dirs[i]&move_dir);
;
	ldy     _i
	lda     _sprite_dirs,y
	sta     ptr1
	lda     _temp1
	and     ptr1
	pha
	pla
	bne     L0D68
;
; move_dir = sprite_dirs[i];
;
	ldy     _i
	lda     _sprite_dirs,y
L0F85:	sta     _temp1
;
; if(craft_bullet_timers[i])
;
L0CF6:	ldy     _i
	lda     _craft_bullet_timers,y
	beq     L0D78
;
; craft_bullet_timers[i]--;
;
	lda     #<(_craft_bullet_timers)
	ldx     #>(_craft_bullet_timers)
	clc
	adc     _i
	bcc     L0D7E
	inx
L0D7E:	sta     sreg
	stx     sreg+1
	sta     ptr1
	stx     ptr1+1
	ldy     #$00
	lda     (ptr1),y
	sec
	sbc     #$01
	sta     (sreg),y
;
; if(craft_bullet_timers[i] == 0)
;
L0D78:	ldy     _i
	lda     _craft_bullet_timers,y
	jne     L0D84
;
; for(j=CRAFT_BULLET_COUNT; j < ENEMY_BULLET_COUNT; j++){
;
	lda     #$08
L0F86:	sta     _j
	cmp     #$0C
	bcs     L0D84
;
; if(craft_bullet_y[j] != 255) continue;
;
	ldy     _j
	lda     _craft_bullet_y,y
	cmp     #$FF
	bne     L0D85
;
; craft_bullet_x[j] = craft_x[i];
;
	lda     #<(_craft_bullet_x)
	ldx     #>(_craft_bullet_x)
	clc
	adc     _j
	bcc     L0D91
	inx
L0D91:	sta     ptr1
	stx     ptr1+1
	ldy     _i
	lda     _craft_x,y
	ldy     #$00
	sta     (ptr1),y
;
; craft_bullet_y[j] = craft_y[i];
;
	lda     #<(_craft_bullet_y)
	ldx     #>(_craft_bullet_y)
	clc
	adc     _j
	bcc     L0D97
	inx
L0D97:	sta     ptr1
	stx     ptr1+1
	ldy     _i
	lda     _craft_y,y
	ldy     #$00
	sta     (ptr1),y
;
; craft_bullet_flag[j] = sprite_dirs[i];
;
	lda     #<(_craft_bullet_flag)
	ldx     #>(_craft_bullet_flag)
	clc
	adc     _j
	bcc     L0D9D
	inx
L0D9D:	sta     ptr1
	stx     ptr1+1
	ldy     _i
	lda     _sprite_dirs,y
	ldy     #$00
	sta     (ptr1),y
;
; craft_bullet_timers[i] = 64 + (rand8()&127);
;
	lda     #<(_craft_bullet_timers)
	ldx     #>(_craft_bullet_timers)
	clc
	adc     _i
	bcc     L0DA3
	inx
L0DA3:	jsr     pushax
	jsr     _rand8
	and     #$7F
	clc
	adc     #$40
	ldy     #$00
	jsr     staspidx
;
; break;
;
	jmp     L0D84
;
; for(j=CRAFT_BULLET_COUNT; j < ENEMY_BULLET_COUNT; j++){
;
L0D85:	lda     _j
	clc
	adc     #$01
	jmp     L0F86
;
; if(new_y >= MAX_Y-1 || craft_hps[i] == 0){
;
L0D84:	lda     _temp3
	cmp     #$EC
	bcs     L0DA8
	ldy     _i
	lda     _craft_hps,y
	bne     L0DA7
;
; craft_types[i] = 255;
;
L0DA8:	ldy     _i
	lda     #$FF
	sta     _craft_types,y
;
; continue;
;
	jmp     L0CB1
;
; for(j=0; j<2; j++){
;
L0DA7:	lda     #$00
L0F87:	sta     _j
	cmp     #$02
	jcs     L0CE9
;
; if(craft_lives[j] != 0){
;
	ldy     _j
	lda     _craft_lives,y
	jeq     L0DB3
;
; if(new_x > craft_x[j]-12 && new_x < craft_x[j]+12 && new_y > craft_y[j]-12 && new_y < craft_y[j]+12){
;
	lda     _temp2
	jsr     pusha0
	ldy     _j
	lda     _craft_x,y
	sec
	sbc     #$0C
	bcs     L0DC1
	ldx     #$FF
L0DC1:	jsr     tosicmp
	bcc     L0DB3
	beq     L0DB3
	lda     _temp2
	jsr     pusha0
	ldy     _j
	lda     _craft_x,y
	clc
	adc     #$0C
	bcc     L0DC5
	ldx     #$01
L0DC5:	jsr     tosicmp
	bcs     L0DB3
	lda     _temp3
	jsr     pusha0
	ldy     _j
	lda     _craft_y,y
	sec
	sbc     #$0C
	bcs     L0DC8
	ldx     #$FF
L0DC8:	jsr     tosicmp
	bcc     L0DB3
	beq     L0DB3
	lda     _temp3
	jsr     pusha0
	ldy     _j
	lda     _craft_y,y
	clc
	adc     #$0C
	bcc     L0DCB
	ldx     #$01
L0DCB:	jsr     tosicmp
	bcs     L0DB3
;
; damage_craft(j, 2);
;
	jsr     decsp2
	lda     _j
	ldy     #$01
	sta     (sp),y
	lda     #$02
	dey
	sta     (sp),y
	jsr     _damage_craft
;
; craft_types[i] = 255;
;
	ldy     _i
	lda     #$FF
	sta     _craft_types,y
;
; break;
;
	jmp     L0CE9
;
; for(j=0; j<2; j++){
;
L0DB3:	lda     _j
	clc
	adc     #$01
	jmp     L0F87
;
; craft_x[i] = new_x;
;
L0CE9:	ldy     _i
	lda     _temp2
	sta     _craft_x,y
;
; craft_y[i] = new_y;
;
	ldy     _i
	lda     _temp3
	sta     _craft_y,y
;
; sprite_dirs[i] = move_dir;
;
	ldy     _i
	lda     _temp1
	sta     _sprite_dirs,y
;
; for(i=2; i<6; i++){
;
L0CB1:	lda     _i
	clc
	adc     #$01
	jmp     L0F88

.endproc

; ---------------------------------------------------------------
; void __near__ check_pause (void)
; ---------------------------------------------------------------

.segment	"CODE"

.proc	_check_pause: near

.segment	"CODE"

;
; if((pad_poll(0)|pad_poll(1)) & PAD_START){
;
	lda     #$00
	jsr     _pad_poll
	jsr     pushax
	lda     #$01
	jsr     _pad_poll
	jsr     tosorax
	and     #$08
	bne     L0F8D
;
; }
;
	rts
;
; alpha = 4;
;
L0F8D:	lda     #$04
	sta     _temp0
;
; while(alpha>0){
;
L0DE8:	lda     _temp0
	beq     L0DE9
;
; alpha--;
;
	lda     _temp0
	sec
	sbc     #$01
	sta     _temp0
;
; pal_bright(alpha);
;
	jsr     _pal_bright
;
; remaining_frame = 3;
;
	lda     #$03
	sta     _temp1
;
; while(remaining_frame--){
;
L0DF0:	lda     _temp1
	pha
	sec
	sbc     #$01
	sta     _temp1
	pla
	tax
	beq     L0DE8
;
; ppu_wait_frame();
;
	jsr     _ppu_wait_frame
;
; }
;
	jmp     L0DF0
;
; oam_clear();
;
L0DE9:	jsr     _oam_clear
;
; spr=0;
;
	lda     #$00
	sta     _spr
;
; for(i=0; i<7; i++){
;
L0F8C:	sta     _i
	cmp     #$07
	bcs     L0DF8
;
; spr=oam_spr(100+(i<<3), 100, 0xF2+(i<<1), 3, spr);
;
	jsr     decsp4
	ldx     #$00
	lda     _i
	jsr     aslax3
	clc
	adc     #$64
	ldy     #$03
	sta     (sp),y
	lda     #$64
	dey
	sta     (sp),y
	lda     _i
	asl     a
	bcc     L0F8B
	clc
L0F8B:	adc     #$F2
	dey
	sta     (sp),y
	lda     #$03
	dey
	sta     (sp),y
	lda     _spr
	jsr     _oam_spr
	sta     _spr
;
; for(i=0; i<7; i++){
;
	lda     _i
	clc
	adc     #$01
	jmp     L0F8C
;
; alpha = 0;
;
L0DF8:	lda     #$00
	sta     _temp0
;
; while(alpha<4){
;
L0E0C:	lda     _temp0
	cmp     #$04
	bcs     L0E0D
;
; alpha++;
;
	lda     _temp0
	clc
	adc     #$01
	sta     _temp0
;
; pal_spr_bright(alpha);
;
	jsr     _pal_spr_bright
;
; remaining_frame = 3;
;
	lda     #$03
	sta     _temp1
;
; while(remaining_frame--){
;
L0E14:	lda     _temp1
	pha
	sec
	sbc     #$01
	sta     _temp1
	pla
	tax
	beq     L0E0C
;
; ppu_wait_frame();
;
	jsr     _ppu_wait_frame
;
; }
;
	jmp     L0E14
;
; ppu_wait_frame();
;
L0E0D:	jsr     _ppu_wait_frame
;
; if((pad_poll(0)|pad_poll(1)) & PAD_START) break;
;
	lda     #$00
	jsr     _pad_poll
	jsr     pushax
	lda     #$01
	jsr     _pad_poll
	jsr     tosorax
	and     #$08
	beq     L0E0D
;
; alpha = 4;
;
	lda     #$04
	sta     _temp0
;
; while(alpha>0){
;
L0E23:	lda     _temp0
	beq     L0E24
;
; alpha--;
;
	lda     _temp0
	sec
	sbc     #$01
	sta     _temp0
;
; pal_spr_bright(alpha);
;
	jsr     _pal_spr_bright
;
; remaining_frame = 3;
;
	lda     #$03
	sta     _temp1
;
; while(remaining_frame--){
;
L0E2B:	lda     _temp1
	pha
	sec
	sbc     #$01
	sta     _temp1
	pla
	tax
	beq     L0E23
;
; ppu_wait_frame();
;
	jsr     _ppu_wait_frame
;
; }
;
	jmp     L0E2B
;
; oam_clear();
;
L0E24:	jsr     _oam_clear
;
; spr=0;
;
	lda     #$00
	sta     _spr
;
; draw_all();
;
	jsr     _draw_all
;
; alpha = 0;
;
	lda     #$00
	sta     _temp0
;
; while(alpha<4){
;
L0E35:	lda     _temp0
	cmp     #$04
	bcs     L0E36
;
; alpha++;
;
	lda     _temp0
	clc
	adc     #$01
	sta     _temp0
;
; pal_bright(alpha);
;
	jsr     _pal_bright
;
; remaining_frame = 3;
;
	lda     #$03
	sta     _temp1
;
; while(remaining_frame--){
;
L0E3D:	lda     _temp1
	pha
	sec
	sbc     #$01
	sta     _temp1
	pla
	tax
	beq     L0E35
;
; ppu_wait_frame();
;
	jsr     _ppu_wait_frame
;
; }
;
	jmp     L0E3D
;
; }
;
L0E36:	rts

.endproc

; ---------------------------------------------------------------
; void __near__ main (void)
; ---------------------------------------------------------------

.segment	"CODE"

.proc	_main: near

.segment	"CODE"

;
; init();
;
	jsr     _init
;
; reset();
;
	jsr     _reset
;
; menu();
;
	jsr     _menu
;
; oam_clear();
;
	jsr     _oam_clear
;
; while(scr!=240){
;
L0E46:	lda     _scr+1
	bne     L0F8E
	lda     _scr
	cmp     #$F0
	beq     L0E47
;
; ppu_wait_frame();
;
L0F8E:	jsr     _ppu_wait_frame
;
; temp1 = 4;
;
	lda     #$04
	sta     _temp1
;
; scroll_screen();
;
	jsr     _scroll_screen
;
; ++frame;
;
	inc     _frame
;
; }
;
	jmp     L0E46
;
; temp5 = 0;
;
L0E47:	lda     #$00
	sta     _temp5
;
; craft_x[0]=78;
;
	lda     #$4E
	sta     _craft_x
;
; craft_y[0]=200;
;
	lda     #$C8
	sta     _craft_y
;
; craft_x[1]=178;
;
	lda     #$B2
	sta     _craft_x+1
;
; craft_y[1]=200;
;
	lda     #$C8
	sta     _craft_y+1
;
; craft_types[2] = 255;
;
	lda     #$FF
	sta     _craft_types+2
;
; craft_types[3] = 255;
;
	sta     _craft_types+3
;
; craft_types[4] = 255;
;
	sta     _craft_types+4
;
; craft_types[5] = 255;
;
	sta     _craft_types+5
;
; craft_hps[0] = 8;
;
	lda     #$08
	sta     _craft_hps
;
; craft_hps[1] = 8;
;
	sta     _craft_hps+1
;
; enemy_spawn_scr = 10;
;
	lda     #$0A
	sta     _enemy_spawn_scr
;
; ppu_wait_frame();
;
L0E71:	jsr     _ppu_wait_frame
;
; oam_clear();
;
	jsr     _oam_clear
;
; spr=0;
;
	lda     #$00
	sta     _spr
;
; tick_crafts();
;
	jsr     _tick_crafts
;
; tick_enemies();
;
	jsr     _tick_enemies
;
; tick_bullets();
;
	jsr     _tick_bullets
;
; draw_all();
;
	jsr     _draw_all
;
; temp1 = 0;
;
	lda     #$00
	sta     _temp1
;
; if(craft_lives[0] && craft_y[0] < 150) temp1 = 150-craft_y[0];
;
	lda     _craft_lives
	beq     L0E7E
	lda     _craft_y
	cmp     #$96
	bcs     L0E7E
	lda     #$96
	sec
	sbc     _craft_y
	sta     _temp1
;
; if(craft_lives[1] && craft_y[1] < 150){
;
L0E7E:	lda     _craft_lives+1
	beq     L0E90
	lda     _craft_y+1
	cmp     #$96
	bcs     L0E90
;
; temp2 = 150-craft_y[1];
;
	lda     #$96
	sec
	sbc     _craft_y+1
	sta     _temp2
;
; if(temp2 > temp1){
;
	sec
	sbc     _temp1
	bcc     L0E90
	beq     L0E90
;
; temp1 = temp2;
;
	lda     _temp2
	sta     _temp1
;
; scroll_screen();
;
L0E90:	jsr     _scroll_screen
;
; check_pause();
;
	jsr     _check_pause
;
; ++frame;
;
	inc     _frame
;
; }
;
	jmp     L0E71

.endproc

