;
; File generated by cc65 v 2.13.3
;
	.fopt		compiler,"cc65 v 2.13.3"
	.setcpu		"6502"
	.smart		on
	.autoimport	on
	.case		on
	.debuginfo	off
	.importzp	sp, sreg, regsave, regbank, tmp1, ptr1, ptr2
	.macpack	longbranch
	.forceimport	__STARTUP__
	.import		_pal_all
	.import		_pal_bright
	.import		_pal_spr_bright
	.import		_ppu_wait_frame
	.import		_ppu_on_all
	.import		_oam_clear
	.import		_oam_size
	.import		_oam_spr
	.import		_pad_poll
	.import		_scroll
	.import		_bank_spr
	.import		_bank_bg
	.import		_rand8
	.import		_rand16
	.import		_set_rand
	.import		_set_vram_update
	.import		_vram_adr
	.import		_vram_unrle
	.export		_palette
	.export		_menu_data
	.export		_isCellBulletFree
	.export		_isFreeIn
	.export		_isFree
	.export		_damage_craft
	.export		_menu
	.export		_draw_tank
	.export		_draw_all
	.export		_init
	.export		_tick_bullets
	.export		_tick_crafts
	.export		_scroll_screen
	.export		_reset
	.export		_tick_enemies
	.export		_check_pause
	.export		_main

.segment	"DATA"

.segment	"ZEROPAGE"
.segment	"BSS"
.segment	"ZEROPAGE"
_blocked:
	.word	$0000
	.res	28,$00
_bullet_blocked:
	.word	$0000
	.res	28,$00
.segment	"BSS"
_sprite_dirs:
	.byte	$01
	.byte	$01
	.byte	$04
	.byte	$04
	.byte	$04
	.byte	$04
_sprite_look_dirs:
	.byte	$00
	.byte	$00
	.byte	$00
	.byte	$00
	.byte	$00
	.byte	$00
_craft_types:
	.byte	$00
	.byte	$01
	.byte	$01
	.byte	$01
	.byte	$01
	.byte	$01
_craft_hps:
	.byte	$00
	.byte	$01
	.byte	$01
	.byte	$01
	.byte	$01
	.byte	$01
_craft_flags:
	.byte	$00
	.byte	$00
	.byte	$00
	.byte	$00
	.byte	$00
	.byte	$00
_craft_lives:
	.byte	$03
	.byte	$03
_craft_bullet_y:
	.byte	$FF
	.res	11,$00
_craft_bullet_timers:
	.byte	$00
	.byte	$00
	.res	4,$00
_scr:
	.word	$0000
_last_row_index:
	.word	$0000
_adr:
	.word	$0000
_next_line:
	.byte	$00
	.res	17,$00
_current_line:
	.byte	$00
	.res	17,$00
_prev_line:
	.byte	$00
	.res	17,$00

.segment	"RODATA"

_palette:
	.byte	$29
	.byte	$27
	.byte	$17
	.byte	$07
	.byte	$29
	.byte	$27
	.byte	$19
	.byte	$18
	.byte	$29
	.byte	$0F
	.byte	$2D
	.byte	$3D
	.byte	$29
	.byte	$21
	.byte	$1C
	.byte	$0F
	.byte	$29
	.byte	$37
	.byte	$26
	.byte	$17
	.byte	$29
	.byte	$31
	.byte	$22
	.byte	$11
	.byte	$29
	.byte	$33
	.byte	$23
	.byte	$13
	.byte	$29
	.byte	$0F
	.byte	$30
	.byte	$30
_bg_colors:
	.byte	$01
	.byte	$00
	.byte	$03
	.byte	$01
	.byte	$01
	.byte	$00
_water_tiles:
	.byte	$BD
	.byte	$8C
	.byte	$AC
	.byte	$DC
	.byte	$BF
	.byte	$8C
	.byte	$9C
	.byte	$DF
	.byte	$BC
	.byte	$7C
	.byte	$AC
	.byte	$DD
	.byte	$BE
	.byte	$7C
	.byte	$9C
	.byte	$DE
_wall_tiles:
	.byte	$80
	.byte	$84
	.byte	$90
	.byte	$99
	.byte	$82
	.byte	$84
	.byte	$A0
	.byte	$98
	.byte	$70
	.byte	$74
	.byte	$90
	.byte	$9B
	.byte	$72
	.byte	$74
	.byte	$A0
	.byte	$9A
_menu_data:
	.byte	$02
	.byte	$68
	.byte	$A2
	.byte	$64
	.byte	$00
	.byte	$00
	.byte	$66
	.byte	$00
	.byte	$02
	.byte	$07
	.byte	$70
	.byte	$74
	.byte	$77
	.byte	$73
	.byte	$00
	.byte	$02
	.byte	$03
	.byte	$67
	.byte	$00
	.byte	$02
	.byte	$06
	.byte	$92
	.byte	$00
	.byte	$00
	.byte	$A1
	.byte	$00
	.byte	$68
	.byte	$00
	.byte	$02
	.byte	$09
	.byte	$81
	.byte	$86
	.byte	$84
	.byte	$82
	.byte	$00
	.byte	$02
	.byte	$03
	.byte	$69
	.byte	$00
	.byte	$69
	.byte	$68
	.byte	$00
	.byte	$02
	.byte	$03
	.byte	$90
	.byte	$00
	.byte	$00
	.byte	$A1
	.byte	$00
	.byte	$02
	.byte	$02
	.byte	$67
	.byte	$00
	.byte	$02
	.byte	$04
	.byte	$67
	.byte	$00
	.byte	$02
	.byte	$0A
	.byte	$63
	.byte	$00
	.byte	$00
	.byte	$70
	.byte	$77
	.byte	$74
	.byte	$76
	.byte	$9B
	.byte	$00
	.byte	$68
	.byte	$A2
	.byte	$63
	.byte	$00
	.byte	$00
	.byte	$68
	.byte	$00
	.byte	$02
	.byte	$13
	.byte	$90
	.byte	$00
	.byte	$02
	.byte	$05
	.byte	$A1
	.byte	$00
	.byte	$68
	.byte	$00
	.byte	$61
	.byte	$28
	.byte	$02
	.byte	$13
	.byte	$93
	.byte	$00
	.byte	$02
	.byte	$05
	.byte	$A2
	.byte	$63
	.byte	$00
	.byte	$00
	.byte	$64
	.byte	$28
	.byte	$5A
	.byte	$5B
	.byte	$02
	.byte	$0F
	.byte	$5C
	.byte	$28
	.byte	$91
	.byte	$00
	.byte	$65
	.byte	$00
	.byte	$00
	.byte	$68
	.byte	$00
	.byte	$A2
	.byte	$00
	.byte	$02
	.byte	$03
	.byte	$28
	.byte	$5F
	.byte	$5D
	.byte	$02
	.byte	$0F
	.byte	$5E
	.byte	$28
	.byte	$9B
	.byte	$68
	.byte	$00
	.byte	$02
	.byte	$04
	.byte	$A3
	.byte	$00
	.byte	$02
	.byte	$03
	.byte	$28
	.byte	$5F
	.byte	$5D
	.byte	$02
	.byte	$0F
	.byte	$5E
	.byte	$28
	.byte	$00
	.byte	$02
	.byte	$04
	.byte	$69
	.byte	$00
	.byte	$A0
	.byte	$00
	.byte	$64
	.byte	$00
	.byte	$00
	.byte	$28
	.byte	$5F
	.byte	$5D
	.byte	$2D
	.byte	$2E
	.byte	$2F
	.byte	$30
	.byte	$31
	.byte	$32
	.byte	$33
	.byte	$34
	.byte	$35
	.byte	$36
	.byte	$37
	.byte	$38
	.byte	$39
	.byte	$3A
	.byte	$5D
	.byte	$5E
	.byte	$28
	.byte	$00
	.byte	$02
	.byte	$06
	.byte	$A3
	.byte	$00
	.byte	$00
	.byte	$62
	.byte	$00
	.byte	$28
	.byte	$5F
	.byte	$5D
	.byte	$3B
	.byte	$3C
	.byte	$3D
	.byte	$3E
	.byte	$3F
	.byte	$40
	.byte	$41
	.byte	$42
	.byte	$43
	.byte	$44
	.byte	$45
	.byte	$46
	.byte	$47
	.byte	$48
	.byte	$5D
	.byte	$5E
	.byte	$28
	.byte	$00
	.byte	$02
	.byte	$06
	.byte	$A3
	.byte	$00
	.byte	$02
	.byte	$03
	.byte	$28
	.byte	$5F
	.byte	$5D
	.byte	$02
	.byte	$0F
	.byte	$5E
	.byte	$28
	.byte	$00
	.byte	$66
	.byte	$00
	.byte	$02
	.byte	$04
	.byte	$A0
	.byte	$00
	.byte	$02
	.byte	$03
	.byte	$28
	.byte	$5F
	.byte	$5D
	.byte	$02
	.byte	$03
	.byte	$49
	.byte	$4A
	.byte	$4B
	.byte	$4C
	.byte	$4B
	.byte	$4C
	.byte	$4D
	.byte	$4E
	.byte	$5D
	.byte	$02
	.byte	$03
	.byte	$5E
	.byte	$28
	.byte	$85
	.byte	$87
	.byte	$02
	.byte	$02
	.byte	$99
	.byte	$00
	.byte	$00
	.byte	$A3
	.byte	$00
	.byte	$02
	.byte	$03
	.byte	$28
	.byte	$5F
	.byte	$5D
	.byte	$02
	.byte	$03
	.byte	$4F
	.byte	$50
	.byte	$51
	.byte	$52
	.byte	$51
	.byte	$53
	.byte	$54
	.byte	$55
	.byte	$5D
	.byte	$02
	.byte	$03
	.byte	$5E
	.byte	$28
	.byte	$00
	.byte	$02
	.byte	$03
	.byte	$90
	.byte	$00
	.byte	$00
	.byte	$A3
	.byte	$00
	.byte	$02
	.byte	$03
	.byte	$28
	.byte	$5F
	.byte	$5D
	.byte	$02
	.byte	$03
	.byte	$56
	.byte	$02
	.byte	$02
	.byte	$5D
	.byte	$56
	.byte	$5D
	.byte	$56
	.byte	$5D
	.byte	$02
	.byte	$04
	.byte	$5E
	.byte	$28
	.byte	$00
	.byte	$02
	.byte	$02
	.byte	$60
	.byte	$93
	.byte	$00
	.byte	$00
	.byte	$A0
	.byte	$00
	.byte	$00
	.byte	$71
	.byte	$72
	.byte	$28
	.byte	$5F
	.byte	$5D
	.byte	$02
	.byte	$0F
	.byte	$5E
	.byte	$28
	.byte	$00
	.byte	$02
	.byte	$03
	.byte	$93
	.byte	$67
	.byte	$68
	.byte	$A2
	.byte	$00
	.byte	$00
	.byte	$92
	.byte	$A0
	.byte	$28
	.byte	$57
	.byte	$58
	.byte	$02
	.byte	$0F
	.byte	$59
	.byte	$28
	.byte	$00
	.byte	$00
	.byte	$62
	.byte	$00
	.byte	$93
	.byte	$00
	.byte	$00
	.byte	$9A
	.byte	$75
	.byte	$77
	.byte	$9B
	.byte	$A3
	.byte	$28
	.byte	$02
	.byte	$13
	.byte	$00
	.byte	$00
	.byte	$61
	.byte	$00
	.byte	$92
	.byte	$00
	.byte	$02
	.byte	$03
	.byte	$98
	.byte	$85
	.byte	$82
	.byte	$28
	.byte	$02
	.byte	$13
	.byte	$65
	.byte	$00
	.byte	$00
	.byte	$60
	.byte	$90
	.byte	$00
	.byte	$02
	.byte	$02
	.byte	$68
	.byte	$A1
	.byte	$BC
	.byte	$BE
	.byte	$28
	.byte	$02
	.byte	$03
	.byte	$05
	.byte	$28
	.byte	$1D
	.byte	$19
	.byte	$0E
	.byte	$26
	.byte	$12
	.byte	$1F
	.byte	$28
	.byte	$14
	.byte	$0E
	.byte	$1A
	.byte	$12
	.byte	$28
	.byte	$02
	.byte	$02
	.byte	$00
	.byte	$02
	.byte	$03
	.byte	$93
	.byte	$00
	.byte	$68
	.byte	$98
	.byte	$86
	.byte	$83
	.byte	$AC
	.byte	$9E
	.byte	$28
	.byte	$02
	.byte	$13
	.byte	$00
	.byte	$02
	.byte	$02
	.byte	$60
	.byte	$90
	.byte	$00
	.byte	$00
	.byte	$A0
	.byte	$00
	.byte	$66
	.byte	$AF
	.byte	$DE
	.byte	$28
	.byte	$02
	.byte	$03
	.byte	$06
	.byte	$28
	.byte	$1D
	.byte	$19
	.byte	$0E
	.byte	$26
	.byte	$12
	.byte	$1F
	.byte	$28
	.byte	$14
	.byte	$0E
	.byte	$1A
	.byte	$12
	.byte	$28
	.byte	$02
	.byte	$02
	.byte	$00
	.byte	$66
	.byte	$00
	.byte	$00
	.byte	$91
	.byte	$00
	.byte	$00
	.byte	$A3
	.byte	$00
	.byte	$00
	.byte	$AF
	.byte	$28
	.byte	$02
	.byte	$14
	.byte	$00
	.byte	$02
	.byte	$03
	.byte	$90
	.byte	$66
	.byte	$00
	.byte	$A3
	.byte	$00
	.byte	$00
	.byte	$AD
	.byte	$28
	.byte	$02
	.byte	$04
	.byte	$12
	.byte	$1B
	.byte	$21
	.byte	$12
	.byte	$1F
	.byte	$28
	.byte	$10
	.byte	$04
	.byte	$11
	.byte	$12
	.byte	$28
	.byte	$02
	.byte	$05
	.byte	$00
	.byte	$00
	.byte	$68
	.byte	$00
	.byte	$90
	.byte	$00
	.byte	$00
	.byte	$A3
	.byte	$00
	.byte	$66
	.byte	$BD
	.byte	$8D
	.byte	$28
	.byte	$02
	.byte	$13
	.byte	$00
	.byte	$02
	.byte	$02
	.byte	$62
	.byte	$90
	.byte	$00
	.byte	$00
	.byte	$A2
	.byte	$00
	.byte	$02
	.byte	$04
	.byte	$67
	.byte	$00
	.byte	$02
	.byte	$03
	.byte	$71
	.byte	$76
	.byte	$76
	.byte	$74
	.byte	$76
	.byte	$77
	.byte	$77
	.byte	$73
	.byte	$00
	.byte	$65
	.byte	$00
	.byte	$02
	.byte	$03
	.byte	$BC
	.byte	$BE
	.byte	$70
	.byte	$75
	.byte	$9B
	.byte	$00
	.byte	$00
	.byte	$A2
	.byte	$00
	.byte	$00
	.byte	$60
	.byte	$00
	.byte	$00
	.byte	$68
	.byte	$64
	.byte	$00
	.byte	$61
	.byte	$00
	.byte	$92
	.byte	$00
	.byte	$02
	.byte	$03
	.byte	$98
	.byte	$84
	.byte	$83
	.byte	$00
	.byte	$02
	.byte	$02
	.byte	$69
	.byte	$00
	.byte	$00
	.byte	$AC
	.byte	$9E
	.byte	$80
	.byte	$87
	.byte	$99
	.byte	$00
	.byte	$00
	.byte	$A2
	.byte	$00
	.byte	$02
	.byte	$09
	.byte	$94
	.byte	$79
	.byte	$7A
	.byte	$79
	.byte	$7A
	.byte	$97
	.byte	$00
	.byte	$63
	.byte	$00
	.byte	$02
	.byte	$05
	.byte	$AC
	.byte	$DE
	.byte	$7F
	.byte	$BE
	.byte	$93
	.byte	$00
	.byte	$00
	.byte	$A1
	.byte	$00
	.byte	$02
	.byte	$02
	.byte	$62
	.byte	$00
	.byte	$02
	.byte	$05
	.byte	$A5
	.byte	$8B
	.byte	$89
	.byte	$88
	.byte	$8A
	.byte	$A6
	.byte	$00
	.byte	$02
	.byte	$03
	.byte	$62
	.byte	$00
	.byte	$02
	.byte	$02
	.byte	$AD
	.byte	$DF
	.byte	$8C
	.byte	$BF
	.byte	$91
	.byte	$00
	.byte	$00
	.byte	$A3
	.byte	$00
	.byte	$02
	.byte	$07
	.byte	$67
	.byte	$00
	.byte	$02
	.byte	$03
	.byte	$61
	.byte	$69
	.byte	$00
	.byte	$02
	.byte	$02
	.byte	$BC
	.byte	$7E
	.byte	$7F
	.byte	$7C
	.byte	$7E
	.byte	$7E
	.byte	$DD
	.byte	$9E
	.byte	$00
	.byte	$00
	.byte	$92
	.byte	$00
	.byte	$00
	.byte	$A1
	.byte	$00
	.byte	$67
	.byte	$00
	.byte	$02
	.byte	$08
	.byte	$65
	.byte	$00
	.byte	$68
	.byte	$00
	.byte	$02
	.byte	$03
	.byte	$BD
	.byte	$8C
	.byte	$8D
	.byte	$8F
	.byte	$8D
	.byte	$8C
	.byte	$8F
	.byte	$BF
	.byte	$00
	.byte	$00
	.byte	$90
	.byte	$00
	.byte	$44
	.byte	$00
	.byte	$02
	.byte	$03
	.byte	$40
	.byte	$00
	.byte	$00
	.byte	$04
	.byte	$89
	.byte	$AA
	.byte	$02
	.byte	$03
	.byte	$22
	.byte	$01
	.byte	$04
	.byte	$89
	.byte	$AA
	.byte	$02
	.byte	$03
	.byte	$22
	.byte	$00
	.byte	$00
	.byte	$88
	.byte	$AA
	.byte	$02
	.byte	$03
	.byte	$22
	.byte	$11
	.byte	$00
	.byte	$B8
	.byte	$AA
	.byte	$02
	.byte	$03
	.byte	$26
	.byte	$11
	.byte	$00
	.byte	$BB
	.byte	$AA
	.byte	$02
	.byte	$03
	.byte	$22
	.byte	$10
	.byte	$00
	.byte	$11
	.byte	$05
	.byte	$00
	.byte	$40
	.byte	$41
	.byte	$CC
	.byte	$30
	.byte	$00
	.byte	$02
	.byte	$02
	.byte	$05
	.byte	$00
	.byte	$0F
	.byte	$0F
	.byte	$00
	.byte	$00
	.byte	$02
	.byte	$00

.segment	"BSS"

.segment	"ZEROPAGE"
_temp0:
	.res	1,$00
_temp1:
	.res	1,$00
_temp2:
	.res	1,$00
_temp3:
	.res	1,$00
_temp4:
	.res	1,$00
_temp5:
	.res	1,$00
.segment	"BSS"
.segment	"ZEROPAGE"
_i:
	.res	1,$00
_j:
	.res	1,$00
_craft_x:
	.res	6,$00
_craft_y:
	.res	6,$00
.segment	"BSS"
_spr:
	.res	1,$00
_frame:
	.res	1,$00
_update_list:
	.res	47,$00
_enemy_spawn_scr:
	.res	1,$00
_wall_hit_x:
	.res	2,$00
_wall_hit_y:
	.res	2,$00
_wall_hit_hp:
	.res	2,$00
_wall_count:
	.res	1,$00
_has_big_wall:
	.res	1,$00
_craft_bullet_x:
	.res	12,$00
_craft_bullet_flag:
	.res	12,$00

; ---------------------------------------------------------------
; unsigned char __near__ __fastcall__ isCellBulletFree (unsigned char, unsigned char)
; ---------------------------------------------------------------

.segment	"CODE"

.proc	_isCellBulletFree: near

.segment	"CODE"

;
; unsigned char __fastcall__ isCellBulletFree(unsigned char i, unsigned char j){
;
	jsr     pusha
;
; return !(bullet_blocked[j] & (1<<(i)));
;
	ldx     #$00
	lda     (sp,x)
	asl     a
	bcc     L0E66
	inx
	clc
L0E66:	adc     #<(_bullet_blocked)
	sta     ptr1
	txa
	adc     #>(_bullet_blocked)
	sta     ptr1+1
	ldy     #$01
	lda     (ptr1),y
	tax
	dey
	lda     (ptr1),y
	jsr     pushax
	lda     #$01
	jsr     pusha0
	ldy     #$05
	lda     (sp),y
	jsr     tosaslax
	jsr     tosandax
	jsr     bnegax
;
; }
;
	jmp     incsp2

.endproc

; ---------------------------------------------------------------
; unsigned char __near__ __fastcall__ isFreeIn (unsigned char, unsigned char)
; ---------------------------------------------------------------

.segment	"CODE"

.proc	_isFreeIn: near

.segment	"CODE"

;
; unsigned char __fastcall__ isFreeIn(unsigned char x, unsigned char y){
;
	jsr     pusha
;
; y += (scr&15);
;
	lda     _scr
	and     #$0F
	ldy     #$00
	clc
	adc     (sp),y
	sta     (sp),y
;
; return !(blocked[y>>4] & (1<<(x>>4)));
;
	ldx     #$00
	lda     (sp),y
	jsr     asrax4
	stx     tmp1
	asl     a
	rol     tmp1
	clc
	adc     #<(_blocked)
	sta     ptr1
	lda     tmp1
	adc     #>(_blocked)
	sta     ptr1+1
	iny
	lda     (ptr1),y
	tax
	dey
	lda     (ptr1),y
	jsr     pushax
	lda     #$01
	jsr     pusha0
	ldy     #$05
	lda     (sp),y
	jsr     asrax4
	jsr     tosaslax
	jsr     tosandax
	jsr     bnegax
;
; }
;
	jmp     incsp2

.endproc

; ---------------------------------------------------------------
; unsigned char __near__ __fastcall__ isFree (unsigned char, unsigned char, unsigned char)
; ---------------------------------------------------------------

.segment	"CODE"

.proc	_isFree: near

.segment	"CODE"

;
; unsigned char __fastcall__ isFree(unsigned char x, unsigned char y, unsigned char dir){
;
	jsr     pusha
;
; if(dir == DIR_LEFT) x-=3;
;
	ldy     #$00
	lda     (sp),y
	cmp     #$08
	bne     L0366
	ldy     #$02
	lda     (sp),y
	sec
	sbc     #$03
;
; else if(dir == DIR_RIGHT) x+=3;
;
	jmp     L0E67
L0366:	lda     (sp),y
	cmp     #$02
	bne     L036B
	tay
	clc
	lda     #$03
	adc     (sp),y
L0E67:	sta     (sp),y
;
; if(dir == DIR_UP) y-=3;
;
L036B:	ldy     #$00
	lda     (sp),y
	cmp     #$01
	bne     L036F
	iny
	lda     (sp),y
	sec
	sbc     #$03
;
; else if(dir == DIR_DOWN) y+=3;
;
	jmp     L0E68
L036F:	lda     (sp),y
	cmp     #$04
	bne     L0374
	iny
	clc
	lda     #$03
	adc     (sp),y
L0E68:	sta     (sp),y
;
; if(dir&3)
;
L0374:	ldy     #$00
	lda     (sp),y
	and     #$03
	beq     L0378
;
; return isFreeIn(x, y+2) && isFreeIn(x, y-2)/* && isFreeIn(x, y)*/;
;
	ldy     #$02
	lda     (sp),y
	jsr     pusha
	ldy     #$02
	lda     (sp),y
	clc
	adc     #$02
	jsr     _isFreeIn
	tax
	jeq     incsp3
	ldy     #$02
	lda     (sp),y
	jsr     pusha
	ldy     #$02
	lda     (sp),y
	sec
	sbc     #$02
	jsr     _isFreeIn
	tax
	bne     L0384
	jmp     incsp3
;
; return isFreeIn(x+2, y) && isFreeIn(x-2, y)/* && isFreeIn(x, y)*/;
;
L0378:	ldy     #$02
	lda     (sp),y
	clc
	adc     #$02
	jsr     pusha
	ldy     #$02
	lda     (sp),y
	jsr     _isFreeIn
	tax
	jeq     incsp3
	ldy     #$02
	lda     (sp),y
	sec
	sbc     #$02
	jsr     pusha
	ldy     #$02
	lda     (sp),y
	jsr     _isFreeIn
	tax
	jeq     incsp3
L0384:	ldx     #$00
	lda     #$01
;
; }
;
	jmp     incsp3

.endproc

; ---------------------------------------------------------------
; unsigned char __near__ damage_craft (unsigned char, unsigned char)
; ---------------------------------------------------------------

.segment	"CODE"

.proc	_damage_craft: near

.segment	"CODE"

;
; if(craft_hps[index] > damage){
;
	ldy     #$01
	lda     (sp),y
	tay
	lda     _craft_hps,y
	sec
	ldy     #$00
	sbc     (sp),y
	bcc     L038E
	beq     L038E
;
; craft_hps[index]  -= damage;
;
	lda     #<(_craft_hps)
	ldx     #>(_craft_hps)
	iny
	clc
	adc     (sp),y
	bcc     L0394
	inx
L0394:	sta     sreg
	stx     sreg+1
	sta     ptr1
	stx     ptr1+1
	dey
	ldx     #$00
	lda     (ptr1),y
	sec
	sbc     (sp),y
	sta     (sreg),y
;
; return 0;
;
	txa
	jmp     incsp2
;
; craft_hps[index] = 0;
;
L038E:	lda     #<(_craft_hps)
	ldx     #>(_craft_hps)
	iny
	clc
	adc     (sp),y
	bcc     L0399
	inx
L0399:	sta     ptr1
	stx     ptr1+1
	lda     #$00
	dey
	sta     (ptr1),y
;
; return 1;
;
	tax
	lda     #$01
;
; }
;
	jmp     incsp2

.endproc

; ---------------------------------------------------------------
; void __near__ menu (void)
; ---------------------------------------------------------------

.segment	"CODE"

.proc	_menu: near

.segment	"CODE"

;
; selected_item = 0;
;
	lda     #$00
	sta     _temp0
;
; old_pad = 0;
;
	sta     _temp1
;
; ++frame;
;
L03A1:	inc     _frame
;
; ppu_wait_frame();
;
	jsr     _ppu_wait_frame
;
; spr = 0;
;
	lda     #$00
	sta     _spr
;
; pad=pad_poll(0)|pad_poll(1);
;
	jsr     _pad_poll
	jsr     pushax
	lda     #$01
	jsr     _pad_poll
	jsr     tosorax
	sta     _temp2
;
; if(old_pad != pad){
;
	cmp     _temp1
	beq     L03CF
;
; old_pad = pad;
;
	lda     _temp2
	sta     _temp1
;
; if(pad&PAD_UP){
;
	lda     _temp2
	and     #$10
	beq     L03B0
;
; --selected_item;
;
	dec     _temp0
;
; if(selected_item == 255) selected_item = 2;
;
	lda     _temp0
	cmp     #$FF
	bne     L03CF
	lda     #$02
	sta     _temp0
;
; } else if(pad&PAD_DOWN){
;
	jmp     L03CF
L03B0:	lda     _temp2
	and     #$20
	beq     L03B8
;
; ++selected_item;
;
	inc     _temp0
;
; if(selected_item == 3) selected_item = 0;
;
	lda     _temp0
	cmp     #$03
	bne     L03CF
	lda     #$00
	sta     _temp0
;
; } else if(pad&(PAD_A|PAD_B|PAD_START|PAD_SELECT)){
;
	jmp     L03CF
L03B8:	lda     _temp2
	and     #$0F
	beq     L03CF
;
; if(selected_item == 0){
;
	lda     _temp0
	bne     L03C3
;
; craft_lives[0] = 3;
;
	lda     #$03
	sta     _craft_lives
;
; craft_lives[1] = 0;
;
	lda     #$00
	sta     _craft_lives+1
;
; craft_types[1] = 255;
;
	lda     #$FF
	sta     _craft_types+1
;
; break;
;
	rts
;
; }else if(selected_item == 1){
;
L03C3:	lda     _temp0
	cmp     #$01
	bne     L03CF
;
; craft_lives[0] = 3;
;
	lda     #$03
	sta     _craft_lives
;
; craft_lives[1] = 3;
;
	sta     _craft_lives+1
;
; break;
;
	rts
;
; spr=oam_spr(61,   139 + selected_item * 16, 0x24, 1, spr);
;
L03CF:	jsr     decsp4
	lda     #$3D
	ldy     #$03
	sta     (sp),y
	ldx     #$00
	lda     _temp0
	jsr     shlax4
	clc
	adc     #$8B
	dey
	sta     (sp),y
	lda     #$24
	dey
	sta     (sp),y
	tya
	dey
	sta     (sp),y
	lda     _spr
	jsr     _oam_spr
	sta     _spr
;
; spr=oam_spr(61+8, 139 + selected_item * 16, 0x34, 1, spr);
;
	jsr     decsp4
	lda     #$45
	ldy     #$03
	sta     (sp),y
	ldx     #$00
	lda     _temp0
	jsr     shlax4
	clc
	adc     #$8B
	dey
	sta     (sp),y
	lda     #$34
	dey
	sta     (sp),y
	tya
	dey
	sta     (sp),y
	lda     _spr
	jsr     _oam_spr
	sta     _spr
;
; }
;
	jmp     L03A1

.endproc

; ---------------------------------------------------------------
; void __near__ draw_tank (void)
; ---------------------------------------------------------------

.segment	"CODE"

.proc	_draw_tank: near

.segment	"CODE"

;
; craft_sprite = craft_types[i]?0x00:0x40;
;
	ldy     _i
	lda     _craft_types,y
	beq     L03EC
	lda     #$00
	jmp     L03EE
L03EC:	lda     #$40
L03EE:	sta     _temp0
;
; switch(sprite_dirs[i]){
;
	ldy     _i
	lda     _sprite_dirs,y
;
; }
;
	cmp     #$01
	beq     L03F6
	cmp     #$02
	beq     L03FC
	cmp     #$04
	beq     L0402
	cmp     #$08
	beq     L0408
	jmp     L03F4
;
; craft_sprite += 0x04;
;
L03F6:	lda     #$04
	clc
	adc     _temp0
	sta     _temp0
;
; craft_sprite_prop = 0;
;
	lda     #$00
;
; break;
;
	jmp     L0E6C
;
; craft_sprite += 0x24;
;
L03FC:	lda     #$24
	clc
	adc     _temp0
	sta     _temp0
;
; craft_sprite_prop = 0;
;
	lda     #$00
;
; break;
;
	jmp     L0E6C
;
; craft_sprite += 0x04;
;
L0402:	clc
	adc     _temp0
	sta     _temp0
;
; craft_sprite_prop = OAM_FLIP_V;
;
	lda     #$80
;
; break;
;
	jmp     L0E6C
;
; craft_sprite += 0x34;
;
L0408:	lda     #$34
	clc
	adc     _temp0
	sta     _temp0
;
; craft_sprite_prop = OAM_FLIP_H;
;
	lda     #$40
L0E6C:	sta     _temp1
;
; if(sprite_look_dirs[i] == DIR_LEFT){
;
L03F4:	ldy     _i
	lda     _sprite_look_dirs,y
	cmp     #$08
;
; }else if(sprite_look_dirs[i] == DIR_RIGHT){
;
	beq     L0E6F
	ldy     _i
	lda     _sprite_look_dirs,y
	cmp     #$02
	bne     L0414
;
; craft_sprite += 0x04;
;
	lda     #$04
L0E6F:	clc
	adc     _temp0
	sta     _temp0
;
; if(i < 2){
;
L0414:	lda     _i
	cmp     #$02
	bcs     L041A
;
; if((frame & 8) == (i?8:0)&& (pad_poll(i)&(PAD_LEFT|PAD_RIGHT|PAD_UP|PAD_DOWN))){
;
	lda     _frame
	ldx     #$00
	and     #$08
	sta     ptr1
	stx     ptr1+1
	lda     _i
	beq     L0422
	lda     #$08
L0422:	cpx     ptr1+1
	bne     L041C
	cmp     ptr1
	bne     L041C
	lda     _i
	jsr     _pad_poll
	and     #$F0
	beq     L041C
;
; craft_sprite += 2;
;
	lda     #$02
	clc
	adc     _temp0
	sta     _temp0
;
; craft_sprite_prop = i | craft_sprite_prop;
;
L041C:	lda     _temp1
	ora     _i
	sta     _temp1
;
; }else{
;
	jmp     L0430
;
; craft_sprite_prop |= 2;
;
L041A:	lda     _temp1
	ora     #$02
	sta     _temp1
;
; if(frame & 8){
;
	lda     _frame
	and     #$08
	beq     L0430
;
; craft_sprite += 2;
;
	lda     #$02
	clc
	adc     _temp0
	sta     _temp0
;
; spr=oam_spr(craft_x[i]-8, craft_y[i]-8, craft_sprite, craft_sprite_prop, spr);
;
L0430:	jsr     decsp4
	ldy     _i
	lda     _craft_x,y
	sec
	sbc     #$08
	ldy     #$03
	sta     (sp),y
	ldy     _i
	lda     _craft_y,y
	sec
	sbc     #$08
	ldy     #$02
	sta     (sp),y
	lda     _temp0
	dey
	sta     (sp),y
	lda     _temp1
	dey
	sta     (sp),y
	lda     _spr
	jsr     _oam_spr
	sta     _spr
;
; spr=oam_spr(craft_x[i],   craft_y[i]-8, craft_sprite^0x10, craft_sprite_prop, spr);
;
	jsr     decsp4
	ldy     _i
	lda     _craft_x,y
	ldy     #$03
	sta     (sp),y
	ldy     _i
	lda     _craft_y,y
	sec
	sbc     #$08
	ldy     #$02
	sta     (sp),y
	lda     _temp0
	eor     #$10
	dey
	sta     (sp),y
	lda     _temp1
	dey
	sta     (sp),y
	lda     _spr
	jsr     _oam_spr
	sta     _spr
;
; }
;
	rts

.endproc

; ---------------------------------------------------------------
; void __near__ draw_all (void)
; ---------------------------------------------------------------

.segment	"CODE"

.proc	_draw_all: near

.segment	"CODE"

;
; for(i=0;i<6; i++){
;
	lda     #$00
L0E70:	sta     _i
	cmp     #$06
	bcs     L044F
;
; if(craft_types[i] == 255) continue;
;
	ldy     _i
	lda     _craft_types,y
	cmp     #$FF
	beq     L0450
;
; draw_tank();
;
	jsr     _draw_tank
;
; if(i<2){
;
	lda     _i
	cmp     #$02
	bcs     L0450
;
; craft_hp_sprite = (craft_hps[i]&254);
;
	ldy     _i
	lda     _craft_hps,y
	and     #$FE
	sta     _temp1
;
; if((craft_hps[i]&1) && !(frame&16)){
;
	ldy     _i
	lda     _craft_hps,y
	and     #$01
	beq     L0462
	lda     _frame
	and     #$10
	bne     L0462
;
; craft_hp_sprite += 2;
;
	lda     #$02
	clc
	adc     _temp1
	sta     _temp1
;
; spr=oam_spr(i?256-20-8:20, 210, 0xA0+craft_hp_sprite, i, spr);
;
L0462:	jsr     decsp4
	lda     _i
	beq     L046F
	lda     #$E4
	jmp     L0471
L046F:	lda     #$14
L0471:	ldy     #$03
	sta     (sp),y
	lda     #$D2
	dey
	sta     (sp),y
	lda     _temp1
	clc
	adc     #$A0
	dey
	sta     (sp),y
	lda     _i
	dey
	sta     (sp),y
	lda     _spr
	jsr     _oam_spr
	sta     _spr
;
; for(i=0;i<6; i++){
;
L0450:	lda     _i
	clc
	adc     #$01
	jmp     L0E70
;
; for(i=0; i<ENEMY_BULLET_COUNT; ++i){
;
L044F:	lda     #$00
	sta     _i
L0478:	lda     _i
	cmp     #$0C
	bcs     L0479
;
; if(craft_bullet_y[i] == 255) continue;
;
	ldy     _i
	lda     _craft_bullet_y,y
	cmp     #$FF
	beq     L047A
;
; spr=oam_spr(craft_bullet_x[i]-2, craft_bullet_y[i]-2, 0x80, i<CRAFT_BULLET_COUNT?i&1:2, spr);
;
	jsr     decsp4
	ldy     _i
	lda     _craft_bullet_x,y
	sec
	sbc     #$02
	ldy     #$03
	sta     (sp),y
	ldy     _i
	lda     _craft_bullet_y,y
	sec
	sbc     #$02
	ldy     #$02
	sta     (sp),y
	lda     #$80
	dey
	sta     (sp),y
	lda     _i
	cmp     #$08
	bcs     L0490
	lda     _i
	and     #$01
	jmp     L0492
L0490:	lda     #$02
L0492:	dey
	sta     (sp),y
	lda     _spr
	jsr     _oam_spr
	sta     _spr
;
; for(i=0; i<ENEMY_BULLET_COUNT; ++i){
;
L047A:	inc     _i
	jmp     L0478
;
; }
;
L0479:	rts

.endproc

; ---------------------------------------------------------------
; void __near__ init (void)
; ---------------------------------------------------------------

.segment	"CODE"

.proc	_init: near

.segment	"CODE"

;
; oam_size(1);
;
	lda     #$01
	jsr     _oam_size
;
; bank_spr(0);
;
	lda     #$00
	jsr     _bank_spr
;
; bank_bg(1);
;
	lda     #$01
	jsr     _bank_bg
;
; pal_all(palette);
;
	lda     #<(_palette)
	ldx     #>(_palette)
	jsr     _pal_all
;
; vram_adr(NAMETABLE_A);
;
	ldx     #$20
	lda     #$00
	jsr     _vram_adr
;
; vram_unrle(menu_data);
;
	lda     #<(_menu_data)
	ldx     #>(_menu_data)
	jsr     _vram_unrle
;
; update_list[0]=NT_UPD_EOF;
;
	lda     #$FF
	sta     _update_list
;
; update_list[1]=0x00;
;
	lda     #$00
	sta     _update_list+1
;
; update_list[2]=32;
;
	lda     #$20
	sta     _update_list+2
;
; update_list[35]=0x20|NT_UPD_HORZ;
;
	lda     #$60
	sta     _update_list+35
;
; update_list[36]=0x00;
;
	lda     #$00
	sta     _update_list+36
;
; update_list[37]=8;//length of attribute update sequence
;
	lda     #$08
	sta     _update_list+37
;
; update_list[46]=NT_UPD_EOF;
;
	lda     #$FF
	sta     _update_list+46
;
; set_vram_update(update_list);
;
	lda     #<(_update_list)
	ldx     #>(_update_list)
	jsr     _set_vram_update
;
; ppu_on_all();
;
	jsr     _ppu_on_all
;
; frame=0;
;
	lda     #$00
	sta     _frame
;
; }
;
	rts

.endproc

; ---------------------------------------------------------------
; void __near__ tick_bullets (void)
; ---------------------------------------------------------------

.segment	"CODE"

.proc	_tick_bullets: near

.segment	"CODE"

;
; for(i=0; i<ENEMY_BULLET_COUNT; ++i){
;
	lda     #$00
	sta     _i
L04BD:	lda     _i
	cmp     #$0C
	bcc     L0E9A
;
; }
;
	rts
;
; if(craft_bullet_y[i] == 255) continue;
;
L0E9A:	ldy     _i
	lda     _craft_bullet_y,y
	cmp     #$FF
	jeq     L04BF
;
; switch(craft_bullet_flag[i] & 0xF){ // bullet_dir
;
	ldy     _i
	lda     _craft_bullet_flag,y
	and     #$0F
;
; }
;
	cmp     #$01
	beq     L04CF
	cmp     #$02
	beq     L04E0
	cmp     #$03
	beq     L04D6
	cmp     #$04
	jeq     L04F1
	cmp     #$06
	beq     L04E7
	cmp     #$08
	jeq     L0502
	cmp     #$09
	jeq     L0509
	cmp     #$0C
	jeq     L04F8
	jmp     L04CD
;
; craft_bullet_y[i] -= 3;
;
L04CF:	lda     #<(_craft_bullet_y)
	ldx     #>(_craft_bullet_y)
	clc
	adc     _i
	bcc     L04D2
	inx
L04D2:	sta     ptr1
	stx     ptr1+1
	ldy     #$00
	lda     (ptr1),y
	sec
	sbc     #$03
;
; break;
;
	jmp     L0E83
;
; craft_bullet_y[i] -= 2;
;
L04D6:	lda     #<(_craft_bullet_y)
	ldx     #>(_craft_bullet_y)
	clc
	adc     _i
	bcc     L04D9
	inx
L04D9:	sta     ptr1
	stx     ptr1+1
	ldy     #$00
	lda     (ptr1),y
	sec
	sbc     #$02
	sta     (ptr1),y
;
; craft_bullet_x[i] += 2;
;
	lda     #<(_craft_bullet_x)
	ldx     #>(_craft_bullet_x)
	clc
	adc     _i
	bcc     L04DD
	inx
L04DD:	sta     ptr1
	stx     ptr1+1
	lda     (ptr1),y
	clc
	adc     #$02
;
; break;
;
	jmp     L0E83
;
; craft_bullet_x[i] += 3;
;
L04E0:	lda     #<(_craft_bullet_x)
	ldx     #>(_craft_bullet_x)
	clc
	adc     _i
	bcc     L04E3
	inx
L04E3:	sta     ptr1
	stx     ptr1+1
	ldy     #$00
	lda     (ptr1),y
	clc
	adc     #$03
;
; break;
;
	jmp     L0E83
;
; craft_bullet_y[i] += 2;
;
L04E7:	lda     #<(_craft_bullet_y)
	ldx     #>(_craft_bullet_y)
	clc
	adc     _i
	bcc     L04EA
	inx
L04EA:	sta     ptr1
	stx     ptr1+1
	ldy     #$00
	lda     (ptr1),y
	clc
	adc     #$02
	sta     (ptr1),y
;
; craft_bullet_x[i] += 2;
;
	lda     #<(_craft_bullet_x)
	ldx     #>(_craft_bullet_x)
	clc
	adc     _i
	bcc     L04EE
	inx
L04EE:	sta     ptr1
	stx     ptr1+1
	lda     (ptr1),y
	clc
	adc     #$02
;
; break;
;
	jmp     L0E83
;
; craft_bullet_y[i] += 3;
;
L04F1:	lda     #<(_craft_bullet_y)
	ldx     #>(_craft_bullet_y)
	clc
	adc     _i
	bcc     L04F4
	inx
L04F4:	sta     ptr1
	stx     ptr1+1
	ldy     #$00
	lda     (ptr1),y
	clc
	adc     #$03
;
; break;
;
	jmp     L0E83
;
; craft_bullet_y[i] += 2;
;
L04F8:	lda     #<(_craft_bullet_y)
	ldx     #>(_craft_bullet_y)
	clc
	adc     _i
	bcc     L04FB
	inx
L04FB:	sta     ptr1
	stx     ptr1+1
	ldy     #$00
	lda     (ptr1),y
	clc
	adc     #$02
;
; break;
;
	jmp     L0E99
;
; craft_bullet_x[i] -= 3;
;
L0502:	lda     #<(_craft_bullet_x)
	ldx     #>(_craft_bullet_x)
	clc
	adc     _i
	bcc     L0505
	inx
L0505:	sta     ptr1
	stx     ptr1+1
	ldy     #$00
	lda     (ptr1),y
	sec
	sbc     #$03
;
; break;
;
	jmp     L0E83
;
; craft_bullet_y[i] -= 2;
;
L0509:	lda     #<(_craft_bullet_y)
	ldx     #>(_craft_bullet_y)
	clc
	adc     _i
	bcc     L050C
	inx
L050C:	sta     ptr1
	stx     ptr1+1
	ldy     #$00
	lda     (ptr1),y
	sec
	sbc     #$02
L0E99:	sta     (ptr1),y
;
; craft_bullet_x[i] -= 2;
;
	lda     #<(_craft_bullet_x)
	ldx     #>(_craft_bullet_x)
	clc
	adc     _i
	bcc     L0510
	inx
L0510:	sta     ptr1
	stx     ptr1+1
	lda     (ptr1),y
	sec
	sbc     #$02
L0E83:	sta     (ptr1),y
;
; if(craft_bullet_y[i] < 10 || craft_bullet_x[i] >= 245 || craft_bullet_y[i] >= 245 || craft_bullet_y[i] < 10){
;
L04CD:	ldy     _i
	lda     _craft_bullet_y,y
	cmp     #$0A
	bcc     L0513
	ldy     _i
	lda     _craft_bullet_x,y
	cmp     #$F5
	bcs     L0513
	ldy     _i
	lda     _craft_bullet_y,y
	cmp     #$F5
	bcs     L0513
	ldy     _i
	lda     _craft_bullet_y,y
	cmp     #$0A
	bcs     L0512
;
; craft_bullet_y[i] = 255;
;
L0513:	ldy     _i
	lda     #$FF
	sta     _craft_bullet_y,y
;
; continue;
;
	jmp     L04BF
;
; bullet_grid_pos_y = (craft_bullet_y[i] + (scr&15))>>4;
;
L0512:	ldy     _i
	ldx     #$00
	lda     _craft_bullet_y,y
	sta     ptr1
	lda     _scr
	and     #$0F
	clc
	adc     ptr1
	bcc     L0E8C
	inx
L0E8C:	jsr     shrax4
	sta     _temp1
;
; bullet_grid_pos_x = craft_bullet_x[i]>>4;
;
	ldy     _i
	ldx     #$00
	lda     _craft_bullet_x,y
	jsr     asrax4
	sta     _temp2
;
; has_collision = isCellBulletFree(bullet_grid_pos_x, bullet_grid_pos_y) == FALSE;
;
	jsr     pusha
	lda     _temp1
	jsr     _isCellBulletFree
	cmp     #$00
	jsr     booleq
	sta     _temp4
;
; if(i<CRAFT_BULLET_COUNT)
;
	lda     _i
	cmp     #$08
	jcs     L052F
;
; if(has_collision){
;
	lda     _temp4
	jeq     L0531
;
; if(wall_hit_hp[i&1] == 0 ||(wall_hit_x[i&1]&15) != bullet_grid_pos_x || (wall_hit_y[i&1]&15) != bullet_grid_pos_y)
;
	lda     _i
	and     #$01
	sta     ptr1
	txa
	clc
	adc     #>(_wall_hit_hp)
	sta     ptr1+1
	ldy     #<(_wall_hit_hp)
	lda     (ptr1),y
	beq     L0534
	lda     _i
	and     #$01
	sta     ptr1
	txa
	clc
	adc     #>(_wall_hit_x)
	sta     ptr1+1
	ldy     #<(_wall_hit_x)
	lda     (ptr1),y
	and     #$0F
	cmp     _temp2
	bne     L0534
	lda     _i
	and     #$01
	sta     ptr1
	txa
	clc
	adc     #>(_wall_hit_y)
	sta     ptr1+1
	ldy     #<(_wall_hit_y)
	lda     (ptr1),y
	and     #$0F
	cmp     _temp1
	beq     L0533
;
; wall_hit_x[i&1] = (wall_hit_x[i&1]&0xF0) | bullet_grid_pos_x;
;
L0534:	lda     _i
	and     #$01
	clc
	adc     #<(_wall_hit_x)
	sta     sreg
	txa
	adc     #>(_wall_hit_x)
	sta     sreg+1
	lda     _i
	and     #$01
	sta     ptr1
	txa
	clc
	adc     #>(_wall_hit_x)
	sta     ptr1+1
	ldy     #<(_wall_hit_x)
	lda     (ptr1),y
	and     #$F0
	sta     ptr1
	lda     _temp2
	ora     ptr1
	ldy     #$00
	sta     (sreg),y
;
; wall_hit_y[i&1] = (wall_hit_y[i&1]&0xF0) | bullet_grid_pos_y;
;
	lda     _i
	and     #$01
	clc
	adc     #<(_wall_hit_y)
	sta     sreg
	txa
	adc     #>(_wall_hit_y)
	sta     sreg+1
	lda     _i
	and     #$01
	sta     ptr1
	txa
	clc
	adc     #>(_wall_hit_y)
	sta     ptr1+1
	ldy     #<(_wall_hit_y)
	lda     (ptr1),y
	and     #$F0
	sta     ptr1
	lda     _temp1
	ora     ptr1
	ldy     #$00
	sta     (sreg),y
;
; wall_hit_hp[i&1] = 5;
;
	lda     _i
	and     #$01
	clc
	adc     #<(_wall_hit_hp)
	sta     ptr1
	txa
	adc     #>(_wall_hit_hp)
	sta     ptr1+1
	lda     #$05
	sta     (ptr1),y
;
; wall_hit_hp[i&1]--;
;
L0533:	lda     _i
	and     #$01
	clc
	adc     #<(_wall_hit_hp)
	tay
	txa
	adc     #>(_wall_hit_hp)
	tax
	tya
	sta     sreg
	stx     sreg+1
	sta     ptr1
	stx     ptr1+1
	ldy     #$00
	lda     (ptr1),y
	sec
	sbc     #$01
	sta     (sreg),y
;
; if(wall_hit_hp[i&1] == 0 && bullet_grid_pos_x != 0 && bullet_grid_pos_x != 15){
;
	lda     _i
	and     #$01
	sta     ptr1
	tya
	clc
	adc     #>(_wall_hit_hp)
	sta     ptr1+1
	ldy     #<(_wall_hit_hp)
	lda     (ptr1),y
	jne     L054A
	lda     _temp2
	jeq     L054A
	lda     _temp2
	cmp     #$0F
	jeq     L054A
;
; bullet_blocked[bullet_grid_pos_y] ^= (1<<bullet_grid_pos_x);
;
	ldx     #$00
	lda     _temp1
	asl     a
	bcc     L0E89
	inx
	clc
L0E89:	adc     #<(_bullet_blocked)
	tay
	txa
	adc     #>(_bullet_blocked)
	tax
	tya
	jsr     pushax
	sta     ptr1
	stx     ptr1+1
	ldy     #$01
	lda     (ptr1),y
	tax
	dey
	lda     (ptr1),y
	jsr     pushax
	lda     #$01
	jsr     pusha0
	lda     _temp2
	jsr     tosaslax
	jsr     tosxorax
	ldy     #$00
	jsr     staxspidx
;
; blocked[bullet_grid_pos_y] ^= (1<<bullet_grid_pos_x);
;
	ldx     #$00
	lda     _temp1
	asl     a
	bcc     L0E8A
	inx
	clc
L0E8A:	adc     #<(_blocked)
	tay
	txa
	adc     #>(_blocked)
	tax
	tya
	jsr     pushax
	sta     ptr1
	stx     ptr1+1
	ldy     #$01
	lda     (ptr1),y
	tax
	dey
	lda     (ptr1),y
	jsr     pushax
	lda     #$01
	jsr     pusha0
	lda     _temp2
	jsr     tosaslax
	jsr     tosxorax
	ldy     #$00
	jsr     staxspidx
;
; row_index_on_ns = last_row_index;
;
	lda     _last_row_index
	sta     _temp0
;
; if(row_index_on_ns&1) row_index_on_ns--;
;
	and     #$01
	beq     L0559
	lda     _temp0
	sec
	sbc     #$01
	sta     _temp0
;
; row_index_on_ns +=(bullet_grid_pos_y<<1);
;
L0559:	lda     _temp1
	asl     a
	clc
	adc     _temp0
	sta     _temp0
;
; if(row_index_on_ns>=60) row_index_on_ns-=60;
;
	cmp     #$3C
	bcc     L055F
	lda     _temp0
	sec
	sbc     #$3C
	sta     _temp0
;
; if(row_index_on_ns<30){
;
L055F:	lda     _temp0
	cmp     #$1E
	bcs     L0563
;
; adr = NAMETABLE_A+(row_index_on_ns<<5);
;
	ldx     #$00
	lda     _temp0
	jsr     aslax4
	stx     tmp1
	asl     a
	rol     tmp1
	sta     _adr
	lda     tmp1
	clc
	adc     #$20
;
; }else{
;
	jmp     L0E8E
;
; row_index_on_ns-=30;
;
L0563:	lda     _temp0
	sec
	sbc     #$1E
	sta     _temp0
;
; adr = NAMETABLE_C+(row_index_on_ns<<5);
;
	ldx     #$00
	lda     _temp0
	jsr     aslax4
	stx     tmp1
	asl     a
	rol     tmp1
	sta     _adr
	lda     tmp1
	clc
	adc     #$28
L0E8E:	sta     _adr+1
;
; adr += bullet_grid_pos_x<<1;
;
	ldx     #$00
	lda     _temp2
	asl     a
	bcc     L0E8B
	inx
	clc
L0E8B:	adc     _adr
	sta     _adr
	txa
	adc     _adr+1
	sta     _adr+1
;
; update_list[0]=MSB(adr)|NT_UPD_HORZ;
;
	ora     #$40
	sta     _update_list
;
; update_list[1]=LSB(adr);
;
	lda     _adr
	sta     _update_list+1
;
; update_list[2] = 2;
;
	lda     #$02
	sta     _update_list+2
;
; update_list[5]=NT_UPD_EOF;
;
	lda     #$FF
	sta     _update_list+5
;
; adr += 32;
;
	lda     #$20
	clc
	adc     _adr
	sta     _adr
	bcc     L0584
	inc     _adr+1
;
; update_list[5]=MSB(adr)|NT_UPD_HORZ;
;
L0584:	lda     _adr+1
	ora     #$40
	sta     _update_list+5
;
; update_list[6]=LSB(adr);
;
	lda     _adr
	sta     _update_list+6
;
; update_list[7] = 2;
;
	lda     #$02
	sta     _update_list+7
;
; update_list[10]=NT_UPD_EOF;
;
	lda     #$FF
	sta     _update_list+10
;
; collision_edge_data = 0;
;
	sty     _temp5
;
; if(bullet_grid_pos_y)
;
	lda     _temp1
	beq     L0599
;
; collision_edge_data |= (!isCellBulletFree(bullet_grid_pos_x, bullet_grid_pos_y-1) || (((wall_hit_x[i&1])>>4) == bullet_grid_pos_x && ((wall_hit_y[i&1])>>4) == bullet_grid_pos_y-1));
;
	lda     _temp5
	jsr     pusha0
	lda     _temp2
	jsr     pusha
	lda     _temp1
	sec
	sbc     #$01
	jsr     _isCellBulletFree
	tax
	beq     L059D
	lda     _i
	and     #$01
	sta     ptr1
	lda     #$00
	clc
	adc     #>(_wall_hit_x)
	sta     ptr1+1
	ldy     #<(_wall_hit_x)
	ldx     #$00
	lda     (ptr1),y
	jsr     asrax4
	cpx     #$00
	bne     L0E7F
	cmp     _temp2
	bne     L0E7F
	lda     _i
	and     #$01
	sta     ptr1
	txa
	clc
	adc     #>(_wall_hit_y)
	sta     ptr1+1
	ldy     #<(_wall_hit_y)
	lda     (ptr1),y
	jsr     asrax4
	sta     ptr1
	stx     ptr1+1
	ldx     #$00
	lda     _temp1
	sec
	sbc     #$01
	bcs     L05A9
	dex
L05A9:	cpx     ptr1+1
	bne     L0E7F
	cmp     ptr1
	beq     L059D
L0E7F:	lda     #$00
	jmp     L05AB
L059D:	lda     #$01
L05AB:	jsr     tosora0
	sta     _temp5
;
; if(bullet_grid_pos_x)
;
L0599:	lda     _temp2
	beq     L05AC
;
; collision_edge_data |= (!isCellBulletFree(bullet_grid_pos_x-1, bullet_grid_pos_y) || (((wall_hit_x[i&1])>>4) == bullet_grid_pos_x-1 && ((wall_hit_y[i&1])>>4) == bullet_grid_pos_y))<<1;
;
	lda     _temp5
	jsr     pusha0
	lda     _temp2
	sec
	sbc     #$01
	jsr     pusha
	lda     _temp1
	jsr     _isCellBulletFree
	tax
	beq     L05B0
	lda     _i
	and     #$01
	sta     ptr1
	lda     #$00
	clc
	adc     #>(_wall_hit_x)
	sta     ptr1+1
	ldy     #<(_wall_hit_x)
	ldx     #$00
	lda     (ptr1),y
	jsr     asrax4
	sta     ptr1
	stx     ptr1+1
	ldx     #$00
	lda     _temp2
	sec
	sbc     #$01
	bcs     L05B8
	dex
L05B8:	cpx     ptr1+1
	bne     L0E80
	cmp     ptr1
	bne     L0E80
	lda     _i
	and     #$01
	sta     ptr1
	lda     #$00
	clc
	adc     #>(_wall_hit_y)
	sta     ptr1+1
	ldy     #<(_wall_hit_y)
	ldx     #$00
	lda     (ptr1),y
	jsr     asrax4
	cpx     #$00
	bne     L0E80
	cmp     _temp1
	beq     L05B0
L0E80:	ldx     #$00
	txa
	jmp     L05BE
L05B0:	lda     #$01
L05BE:	asl     a
	bcc     L0E74
	inx
L0E74:	jsr     tosorax
	sta     _temp5
;
; if(bullet_grid_pos_y<14)
;
L05AC:	lda     _temp1
	cmp     #$0E
	bcs     L05BF
;
; collision_edge_data |= (!isCellBulletFree(bullet_grid_pos_x, bullet_grid_pos_y+1) || (((wall_hit_x[i&1])>>4) == bullet_grid_pos_x && ((wall_hit_y[i&1])>>4) == bullet_grid_pos_y+1))<<2;
;
	lda     _temp5
	jsr     pusha0
	lda     _temp2
	jsr     pusha
	lda     _temp1
	clc
	adc     #$01
	jsr     _isCellBulletFree
	tax
	beq     L05C3
	lda     _i
	and     #$01
	sta     ptr1
	lda     #$00
	clc
	adc     #>(_wall_hit_x)
	sta     ptr1+1
	ldy     #<(_wall_hit_x)
	ldx     #$00
	lda     (ptr1),y
	jsr     asrax4
	cpx     #$00
	bne     L0E81
	cmp     _temp2
	bne     L0E81
	lda     _i
	and     #$01
	sta     ptr1
	txa
	clc
	adc     #>(_wall_hit_y)
	sta     ptr1+1
	ldy     #<(_wall_hit_y)
	lda     (ptr1),y
	jsr     asrax4
	sta     ptr1
	stx     ptr1+1
	ldx     #$00
	lda     _temp1
	clc
	adc     #$01
	bcc     L05CF
	inx
L05CF:	cpx     ptr1+1
	bne     L0E81
	cmp     ptr1
	beq     L05C3
L0E81:	ldx     #$00
	txa
	jmp     L05D1
L05C3:	ldx     #$00
	lda     #$01
L05D1:	jsr     aslax2
	jsr     tosorax
	sta     _temp5
;
; if(bullet_grid_pos_x<15)
;
L05BF:	lda     _temp2
	cmp     #$0F
	bcs     L05D2
;
; collision_edge_data |= (!isCellBulletFree(bullet_grid_pos_x+1, bullet_grid_pos_y) || (((wall_hit_x[i&1])>>4) == bullet_grid_pos_x+1 && ((wall_hit_y[i&1])>>4) == bullet_grid_pos_y))<<3;
;
	lda     _temp5
	jsr     pusha0
	lda     _temp2
	clc
	adc     #$01
	jsr     pusha
	lda     _temp1
	jsr     _isCellBulletFree
	tax
	beq     L05D6
	lda     _i
	and     #$01
	sta     ptr1
	lda     #$00
	clc
	adc     #>(_wall_hit_x)
	sta     ptr1+1
	ldy     #<(_wall_hit_x)
	ldx     #$00
	lda     (ptr1),y
	jsr     asrax4
	sta     ptr1
	stx     ptr1+1
	ldx     #$00
	lda     _temp2
	clc
	adc     #$01
	bcc     L05DE
	inx
L05DE:	cpx     ptr1+1
	bne     L0E82
	cmp     ptr1
	bne     L0E82
	lda     _i
	and     #$01
	sta     ptr1
	lda     #$00
	clc
	adc     #>(_wall_hit_y)
	sta     ptr1+1
	ldy     #<(_wall_hit_y)
	ldx     #$00
	lda     (ptr1),y
	jsr     asrax4
	cpx     #$00
	bne     L0E82
	cmp     _temp1
	beq     L05D6
L0E82:	ldx     #$00
	txa
	jmp     L05E4
L05D6:	lda     #$01
L05E4:	jsr     aslax3
	jsr     tosorax
	sta     _temp5
;
; if((collision_edge_data & 3) == 3)
;
L05D2:	lda     _temp5
	and     #$03
	cmp     #$03
	bne     L05E5
;
; update_list[3] = 0xB0;
;
	lda     #$B0
;
; else if(collision_edge_data & 1)
;
	jmp     L0E85
L05E5:	lda     _temp5
	and     #$01
	beq     L05ED
;
; update_list[3] = 0xB4;
;
	lda     #$B4
;
; else if(collision_edge_data & 2)
;
	jmp     L0E85
L05ED:	lda     _temp5
	and     #$02
	beq     L0E85
;
; update_list[3] = 0xB2;
;
	lda     #$B2
;
; update_list[3] = 0;
;
L0E85:	sta     _update_list+3
;
; if((collision_edge_data & 9) == 9)
;
	lda     _temp5
	and     #$09
	cmp     #$09
	bne     L05FC
;
; update_list[4] = 0xB1;
;
	lda     #$B1
;
; else if(collision_edge_data & 1)
;
	jmp     L0E86
L05FC:	lda     _temp5
	and     #$01
	beq     L0604
;
; update_list[4] = 0xB5;
;
	lda     #$B5
;
; else if(collision_edge_data & 8)
;
	jmp     L0E86
L0604:	lda     _temp5
	and     #$08
	beq     L0E86
;
; update_list[4] = 0xB3;
;
	lda     #$B3
;
; update_list[4] = 0;
;
L0E86:	sta     _update_list+4
;
; if((collision_edge_data & 6) == 6)
;
	lda     _temp5
	and     #$06
	cmp     #$06
	bne     L0613
;
; update_list[8] = 0xC0;
;
	lda     #$C0
;
; else if(collision_edge_data & 4)
;
	jmp     L0E87
L0613:	lda     _temp5
	and     #$04
	beq     L061B
;
; update_list[8] = 0xC4;
;
	lda     #$C4
;
; else if(collision_edge_data & 2)
;
	jmp     L0E87
L061B:	lda     _temp5
	and     #$02
	beq     L0E87
;
; update_list[8] = 0xC2;
;
	lda     #$C2
;
; update_list[8] = 0;
;
L0E87:	sta     _update_list+8
;
; if((collision_edge_data & 12) == 12)
;
	lda     _temp5
	and     #$0C
	cmp     #$0C
	bne     L062A
;
; update_list[9] = 0xC1;
;
	lda     #$C1
;
; else if(collision_edge_data & 4)
;
	jmp     L0E88
L062A:	lda     _temp5
	and     #$04
	beq     L0632
;
; update_list[9] = 0xC5;
;
	lda     #$C5
;
; else if(collision_edge_data & 8)
;
	jmp     L0E88
L0632:	lda     _temp5
	and     #$08
	beq     L0E88
;
; update_list[9] = 0xC3;
;
	lda     #$C3
;
; update_list[9] = 0;
;
L0E88:	sta     _update_list+9
;
; wall_hit_x[i&1] <<= 4;
;
	lda     _i
	and     #$01
	clc
	adc     #<(_wall_hit_x)
	sta     ptr1
	lda     #$00
	adc     #>(_wall_hit_x)
	sta     ptr1+1
	ldy     #$00
	lda     (ptr1),y
	asl     a
	asl     a
	asl     a
	asl     a
	sta     (ptr1),y
;
; wall_hit_y[i&1] <<= 4;
;
	lda     _i
	and     #$01
	clc
	adc     #<(_wall_hit_y)
	sta     ptr1
	tya
	adc     #>(_wall_hit_y)
	sta     ptr1+1
	lda     (ptr1),y
	asl     a
	asl     a
	asl     a
	asl     a
	sta     (ptr1),y
;
; craft_bullet_y[i] = 255;
;
L054A:	ldy     _i
	lda     #$FF
	sta     _craft_bullet_y,y
;
; continue;
;
	jmp     L04BF
;
; for(j=2; j<6; j++){
;
L0531:	lda     #$02
L0E8F:	sta     _j
	cmp     #$06
	jcs     L04BF
;
; if(craft_types[j] != 255){
;
	ldy     _j
	lda     _craft_types,y
	cmp     #$FF
	jeq     L064D
;
; if(craft_bullet_x[i] > craft_x[j]-6 && craft_bullet_x[i] < craft_x[j]+6 && craft_bullet_y[i] > craft_y[j]-6 && craft_bullet_y[i] < craft_y[j]+6){
;
	ldy     _i
	lda     _craft_bullet_x,y
	jsr     pusha0
	ldy     _j
	lda     _craft_x,y
	sec
	sbc     #$06
	bcs     L065D
	ldx     #$FF
L065D:	jsr     tosicmp
	bcc     L064D
	beq     L064D
	ldy     _i
	lda     _craft_bullet_x,y
	jsr     pusha0
	ldy     _j
	lda     _craft_x,y
	clc
	adc     #$06
	bcc     L0663
	ldx     #$01
L0663:	jsr     tosicmp
	bcs     L064D
	ldy     _i
	lda     _craft_bullet_y,y
	jsr     pusha0
	ldy     _j
	lda     _craft_y,y
	sec
	sbc     #$06
	bcs     L0668
	ldx     #$FF
L0668:	jsr     tosicmp
	bcc     L064D
	beq     L064D
	ldy     _i
	lda     _craft_bullet_y,y
	jsr     pusha0
	ldy     _j
	lda     _craft_y,y
	clc
	adc     #$06
	bcc     L066D
	ldx     #$01
L066D:	jsr     tosicmp
	bcs     L064D
;
; damage_craft(j, 1);
;
	jsr     decsp2
	lda     _j
	ldy     #$01
	sta     (sp),y
	tya
	dey
	sta     (sp),y
	jsr     _damage_craft
;
; craft_bullet_y[i] = 255;
;
	ldy     _i
	lda     #$FF
	sta     _craft_bullet_y,y
;
; break;
;
	jmp     L04BF
;
; for(j=2; j<6; j++){
;
L064D:	lda     _j
	clc
	adc     #$01
	jmp     L0E8F
;
; if(has_collision){
;
L052F:	lda     _temp4
	beq     L0677
;
; craft_bullet_y[i] = 255;
;
	ldy     _i
	lda     #$FF
	sta     _craft_bullet_y,y
;
; continue;
;
	jmp     L04BF
;
; for(j=0; j<2; j++){
;
L0677:	sta     _j
	cmp     #$02
	jcs     L04BF
;
; if(craft_lives[j] > 0){
;
	ldy     _j
	lda     _craft_lives,y
	jeq     L067F
;
; if(craft_bullet_x[i] > craft_x[j]-6 && craft_bullet_x[i] < craft_x[j]+6 && craft_bullet_y[i] > craft_y[j]-6 && craft_bullet_y[i] < craft_y[j]+6){
;
	ldy     _i
	lda     _craft_bullet_x,y
	jsr     pusha0
	ldy     _j
	lda     _craft_x,y
	sec
	sbc     #$06
	bcs     L068F
	ldx     #$FF
L068F:	jsr     tosicmp
	bcc     L067F
	beq     L067F
	ldy     _i
	lda     _craft_bullet_x,y
	jsr     pusha0
	ldy     _j
	lda     _craft_x,y
	clc
	adc     #$06
	bcc     L0695
	ldx     #$01
L0695:	jsr     tosicmp
	bcs     L067F
	ldy     _i
	lda     _craft_bullet_y,y
	jsr     pusha0
	ldy     _j
	lda     _craft_y,y
	sec
	sbc     #$06
	bcs     L069A
	ldx     #$FF
L069A:	jsr     tosicmp
	bcc     L067F
	beq     L067F
	ldy     _i
	lda     _craft_bullet_y,y
	jsr     pusha0
	ldy     _j
	lda     _craft_y,y
	clc
	adc     #$06
	bcc     L069F
	ldx     #$01
L069F:	jsr     tosicmp
	bcs     L067F
;
; damage_craft(j, 1);
;
	jsr     decsp2
	lda     _j
	ldy     #$01
	sta     (sp),y
	tya
	dey
	sta     (sp),y
	jsr     _damage_craft
;
; craft_bullet_y[i] = 255;
;
	ldy     _i
	lda     #$FF
	sta     _craft_bullet_y,y
;
; for(j=0; j<2; j++){
;
L067F:	lda     _j
	clc
	adc     #$01
	jmp     L0677
;
; for(i=0; i<ENEMY_BULLET_COUNT; ++i){
;
L04BF:	inc     _i
	jmp     L04BD

.endproc

; ---------------------------------------------------------------
; void __near__ tick_crafts (void)
; ---------------------------------------------------------------

.segment	"CODE"

.proc	_tick_crafts: near

.segment	"CODE"

;
; for(i=0;i<2;++i){
;
	lda     #$00
	sta     _i
L06A9:	lda     _i
	cmp     #$02
	bcc     L0EA0
;
; }
;
	rts
;
; if(!craft_lives[i]) continue;
;
L0EA0:	ldy     _i
	lda     _craft_lives,y
	jeq     L06AB
;
; if(craft_hps[i] == 0)
;
	ldy     _i
	lda     _craft_hps,y
	bne     L06B5
;
; craft_hps[i] = 8;
;
	ldy     _i
	lda     #$08
	sta     _craft_hps,y
;
; craft_lives[i]--;
;
	lda     #<(_craft_lives)
	ldx     #>(_craft_lives)
	clc
	adc     _i
	bcc     L06BF
	inx
L06BF:	sta     sreg
	stx     sreg+1
	sta     ptr1
	stx     ptr1+1
	ldy     #$00
	lda     (ptr1),y
	sec
	sbc     #$01
	sta     (sreg),y
;
; pad=pad_poll(i);
;
L06B5:	lda     _i
	jsr     _pad_poll
	sta     _temp0
;
; shoot_left = (pad&(PAD_UP|PAD_DOWN)) && sprite_dirs[i] != DIR_LEFT && sprite_dirs[i] != DIR_RIGHT;
;
	and     #$30
	beq     L06C7
	ldy     _i
	lda     _sprite_dirs,y
	cmp     #$08
	beq     L06C7
	ldy     _i
	lda     _sprite_dirs,y
	cmp     #$02
	bne     L06C4
L06C7:	lda     #$00
	jmp     L06CC
L06C4:	lda     #$01
L06CC:	sta     _temp1
;
; shoot_right = (pad&(PAD_LEFT|PAD_RIGHT)) && sprite_dirs[i] != DIR_UP && sprite_dirs[i] != DIR_DOWN;
;
	lda     _temp0
	and     #$C0
	beq     L06D1
	ldy     _i
	lda     _sprite_dirs,y
	cmp     #$01
	beq     L06D1
	ldy     _i
	lda     _sprite_dirs,y
	cmp     #$04
	bne     L06CE
L06D1:	lda     #$00
	jmp     L06D6
L06CE:	lda     #$01
L06D6:	sta     _temp3
;
; move_dir = 0;
;
	lda     #$00
	sta     _temp2
;
; sprite_look_dirs[i] = 0;
;
	ldy     _i
	sta     _sprite_look_dirs,y
;
; move_amount = 0;
;
	sta     _temp4
;
; if(pad&PAD_LEFT){
;
	lda     _temp0
	and     #$40
	beq     L06DF
;
; move_amount++;
;
	lda     _temp4
	clc
	adc     #$01
	sta     _temp4
;
; move_dir |= DIR_LEFT;
;
	lda     _temp2
	ora     #$08
	sta     _temp2
;
; if(shoot_left){
;
	lda     _temp1
	beq     L06E4
;
; sprite_look_dirs[i] = DIR_LEFT;
;
	ldy     _i
	lda     #$08
	sta     _sprite_look_dirs,y
;
; }else{
;
	jmp     L06FB
;
; sprite_dirs[i] = DIR_LEFT;
;
L06E4:	ldy     _i
	lda     #$08
;
; } else if(pad&PAD_RIGHT){
;
	jmp     L0E9B
L06DF:	lda     _temp0
	and     #$80
	beq     L06FB
;
; move_amount++;
;
	lda     _temp4
	clc
	adc     #$01
	sta     _temp4
;
; move_dir |= DIR_RIGHT;
;
	lda     _temp2
	ora     #$02
	sta     _temp2
;
; if(shoot_left){
;
	lda     _temp1
	beq     L06F5
;
; sprite_look_dirs[i] = DIR_RIGHT;
;
	ldy     _i
	lda     #$02
	sta     _sprite_look_dirs,y
;
; }else{
;
	jmp     L06FB
;
; sprite_dirs[i] = DIR_RIGHT;
;
L06F5:	ldy     _i
	lda     #$02
L0E9B:	sta     _sprite_dirs,y
;
; if(pad&PAD_UP){
;
L06FB:	lda     _temp0
	and     #$10
	beq     L0700
;
; move_amount++;
;
	lda     _temp4
	clc
	adc     #$01
	sta     _temp4
;
; move_dir |= DIR_UP;
;
	lda     _temp2
	ora     #$01
	sta     _temp2
;
; if(shoot_right){
;
	lda     _temp3
	beq     L0705
;
; sprite_look_dirs[i] = DIR_LEFT;
;
	ldy     _i
	lda     #$08
	sta     _sprite_look_dirs,y
;
; }else{
;
	jmp     L071C
;
; sprite_dirs[i] = DIR_UP;
;
L0705:	ldy     _i
	lda     #$01
;
; } else if(pad&PAD_DOWN){
;
	jmp     L0E9C
L0700:	lda     _temp0
	and     #$20
	beq     L071C
;
; move_amount++;
;
	lda     _temp4
	clc
	adc     #$01
	sta     _temp4
;
; move_dir |= DIR_DOWN;
;
	lda     _temp2
	ora     #$04
	sta     _temp2
;
; if(shoot_right){
;
	lda     _temp3
	beq     L0716
;
; sprite_look_dirs[i] = DIR_RIGHT;
;
	ldy     _i
	lda     #$02
	sta     _sprite_look_dirs,y
;
; }else{
;
	jmp     L071C
;
; sprite_dirs[i] = DIR_DOWN;
;
L0716:	ldy     _i
	lda     #$04
L0E9C:	sta     _sprite_dirs,y
;
; if(move_amount == 1 || (frame&3) != 0)
;
L071C:	lda     _temp4
	cmp     #$01
	beq     L0722
	lda     _frame
	and     #$03
	jeq     L0735
;
; if((move_dir&DIR_LEFT) && isFree(craft_x[i], craft_y[i], DIR_LEFT)){
;
L0722:	lda     _temp2
	and     #$08
	beq     L0726
	jsr     decsp2
	ldy     _i
	lda     _craft_x,y
	ldy     #$01
	sta     (sp),y
	ldy     _i
	lda     _craft_y,y
	ldy     #$00
	sta     (sp),y
	lda     #$08
	jsr     _isFree
	tax
	beq     L0726
;
; craft_x[i]--;
;
	lda     #<(_craft_x)
	ldx     #>(_craft_x)
	clc
	adc     _i
	bcc     L0734
	inx
L0734:	sta     sreg
	stx     sreg+1
	sta     ptr1
	stx     ptr1+1
	ldy     #$00
	lda     (ptr1),y
	sec
	sbc     #$01
	sta     (sreg),y
;
; if((move_dir&DIR_RIGHT) && isFree(craft_x[i], craft_y[i], DIR_RIGHT)){
;
L0726:	lda     _temp2
	and     #$02
	beq     L0735
	jsr     decsp2
	ldy     _i
	lda     _craft_x,y
	ldy     #$01
	sta     (sp),y
	ldy     _i
	lda     _craft_y,y
	ldy     #$00
	sta     (sp),y
	lda     #$02
	jsr     _isFree
	tax
	beq     L0735
;
; craft_x[i]++;
;
	lda     #<(_craft_x)
	ldx     #>(_craft_x)
	clc
	adc     _i
	bcc     L0743
	inx
L0743:	sta     sreg
	stx     sreg+1
	sta     ptr1
	stx     ptr1+1
	ldy     #$00
	lda     (ptr1),y
	clc
	adc     #$01
	sta     (sreg),y
;
; if(move_amount == 1 || (frame&3) != 1)
;
L0735:	lda     _temp4
	cmp     #$01
	beq     L0745
	lda     _frame
	and     #$03
	cmp     #$01
	jeq     L0744
;
; if((move_dir&DIR_UP) && (((craft_y[i]-3+(scr&15))>>4) == 15 || isFree(craft_x[i], craft_y[i], DIR_UP))){
;
L0745:	lda     _temp2
	and     #$01
	beq     L0749
	ldy     _i
	ldx     #$00
	lda     _craft_y,y
	sec
	sbc     #$03
	bcs     L0752
	dex
L0752:	sta     ptr1
	stx     ptr1+1
	lda     _scr
	and     #$0F
	clc
	adc     ptr1
	ldx     ptr1+1
	bcc     L0E9E
	inx
L0E9E:	jsr     shrax4
	cpx     #$00
	bne     L0E9F
	cmp     #$0F
	beq     L074A
L0E9F:	jsr     decsp2
	ldy     _i
	lda     _craft_x,y
	ldy     #$01
	sta     (sp),y
	ldy     _i
	lda     _craft_y,y
	ldy     #$00
	sta     (sp),y
	lda     #$01
	jsr     _isFree
	tax
	beq     L0749
;
; craft_y[i]--;
;
L074A:	lda     #<(_craft_y)
	ldx     #>(_craft_y)
	clc
	adc     _i
	bcc     L0760
	inx
L0760:	sta     sreg
	stx     sreg+1
	sta     ptr1
	stx     ptr1+1
	ldy     #$00
	lda     (ptr1),y
	sec
	sbc     #$01
	sta     (sreg),y
;
; if((move_dir&DIR_DOWN) && isFree(craft_x[i], craft_y[i], DIR_DOWN)){
;
L0749:	lda     _temp2
	and     #$04
	beq     L0744
	jsr     decsp2
	ldy     _i
	lda     _craft_x,y
	ldy     #$01
	sta     (sp),y
	ldy     _i
	lda     _craft_y,y
	ldy     #$00
	sta     (sp),y
	lda     #$04
	jsr     _isFree
	tax
	beq     L0744
;
; craft_y[i]++;
;
	lda     #<(_craft_y)
	ldx     #>(_craft_y)
	clc
	adc     _i
	bcc     L076F
	inx
L076F:	sta     sreg
	stx     sreg+1
	sta     ptr1
	stx     ptr1+1
	ldy     #$00
	lda     (ptr1),y
	clc
	adc     #$01
	sta     (sreg),y
;
; if(craft_y[i] >= MAX_Y) craft_y[i] = MAX_Y;
;
L0744:	ldy     _i
	lda     _craft_y,y
	cmp     #$ED
	bcc     L0770
	ldy     _i
	lda     #$ED
	sta     _craft_y,y
;
; if(craft_bullet_timers[i] == 0){
;
L0770:	ldy     _i
	lda     _craft_bullet_timers,y
	jne     L077A
;
; if(pad&PAD_A){
;
	lda     _temp0
	and     #$01
	jeq     L06AB
;
; for(j=i; j < CRAFT_BULLET_COUNT; j += 2){
;
	lda     _i
L0E9D:	sta     _j
	cmp     #$08
	jcs     L06AB
;
; if(craft_bullet_y[j] != 255) continue;
;
	ldy     _j
	lda     _craft_bullet_y,y
	cmp     #$FF
	bne     L0782
;
; craft_bullet_x[j] = craft_x[i];
;
	lda     #<(_craft_bullet_x)
	ldx     #>(_craft_bullet_x)
	clc
	adc     _j
	bcc     L078F
	inx
L078F:	sta     ptr1
	stx     ptr1+1
	ldy     _i
	lda     _craft_x,y
	ldy     #$00
	sta     (ptr1),y
;
; craft_bullet_y[j] = craft_y[i];
;
	lda     #<(_craft_bullet_y)
	ldx     #>(_craft_bullet_y)
	clc
	adc     _j
	bcc     L0795
	inx
L0795:	sta     ptr1
	stx     ptr1+1
	ldy     _i
	lda     _craft_y,y
	ldy     #$00
	sta     (ptr1),y
;
; craft_bullet_flag[j] = move_dir | sprite_dirs[i];
;
	lda     #<(_craft_bullet_flag)
	ldx     #>(_craft_bullet_flag)
	clc
	adc     _j
	bcc     L079B
	inx
L079B:	sta     ptr1
	stx     ptr1+1
	ldy     _i
	lda     _sprite_dirs,y
	ora     _temp2
	ldy     #$00
	sta     (ptr1),y
;
; craft_bullet_timers[i] = 16;
;
	ldy     _i
	lda     #$10
	sta     _craft_bullet_timers,y
;
; break;
;
	jmp     L06AB
;
; for(j=i; j < CRAFT_BULLET_COUNT; j += 2){
;
L0782:	lda     #$02
	clc
	adc     _j
	jmp     L0E9D
;
; --craft_bullet_timers[i];
;
L077A:	lda     #<(_craft_bullet_timers)
	ldx     #>(_craft_bullet_timers)
	clc
	adc     _i
	bcc     L07A6
	inx
L07A6:	sta     ptr1
	stx     ptr1+1
	ldy     #$00
	lda     (ptr1),y
	sec
	sbc     #$01
	sta     (ptr1),y
;
; for(i=0;i<2;++i){
;
L06AB:	inc     _i
	jmp     L06A9

.endproc

; ---------------------------------------------------------------
; void __near__ scroll_screen (void)
; ---------------------------------------------------------------

.segment	"CODE"

.proc	_scroll_screen: near

.segment	"CODE"

;
; if(temp0 < 150){
;
	lda     _temp0
	cmp     #$96
	bcc     L0F47
;
; }
;
	rts
;
; set_rand(rand16()^frame^craft_x[0]^craft_y[1]);
;
L0F47:	jsr     _rand16
	sta     ptr1
	stx     ptr1+1
	lda     _frame
	eor     ptr1
	sta     ptr1
	lda     #$00
	eor     ptr1+1
	sta     ptr1+1
	lda     _craft_x
	eor     ptr1
	sta     ptr1
	lda     #$00
	eor     ptr1+1
	sta     ptr1+1
	lda     _craft_y+1
	eor     ptr1
	pha
	lda     #$00
	eor     ptr1+1
	tax
	pla
	jsr     _set_rand
;
; if(enemy_spawn_scr > scroll_amount){
;
	lda     _enemy_spawn_scr
	sec
	sbc     _temp1
	bcc     L07AE
	beq     L07AE
;
; enemy_spawn_scr -= scroll_amount;
;
	lda     _temp1
	eor     #$FF
	sec
	adc     _enemy_spawn_scr
;
; }else{
;
	jmp     L0EBE
;
; enemy_spawn_scr = 0;
;
L07AE:	lda     #$00
L0EBE:	sta     _enemy_spawn_scr
;
; for(i=0;i<6;++i){
;
	lda     #$00
	sta     _i
L07B5:	lda     _i
	cmp     #$06
	bcs     L07B6
;
; craft_y[i] += scroll_amount;
;
	lda     #<(_craft_y)
	ldx     #>(_craft_y)
	clc
	adc     _i
	bcc     L07BF
	inx
L07BF:	sta     sreg
	stx     sreg+1
	sta     ptr1
	stx     ptr1+1
	ldy     #$00
	lda     (ptr1),y
	clc
	adc     _temp1
	sta     (sreg),y
;
; if(craft_y[i] >= MAX_Y+1) craft_y[i] = MAX_Y+1;
;
	ldy     _i
	lda     _craft_y,y
	cmp     #$EE
	bcc     L07B7
	ldy     _i
	lda     #$EE
	sta     _craft_y,y
;
; for(i=0;i<6;++i){
;
L07B7:	inc     _i
	jmp     L07B5
;
; for(i=0; i<ENEMY_BULLET_COUNT; ++i){
;
L07B6:	lda     #$00
	sta     _i
L07CB:	lda     _i
	cmp     #$0C
	bcs     L07CC
;
; if(craft_bullet_y[i] == 255) continue;
;
	ldy     _i
	lda     _craft_bullet_y,y
	cmp     #$FF
	beq     L07CD
;
; if(craft_bullet_y[i] > 255 - scroll_amount){
;
	ldy     _i
	lda     _craft_bullet_y,y
	jsr     pusha0
	lda     #$FF
	sec
	sbc     _temp1
	jsr     tosicmp0
	bcc     L07D7
	beq     L07D7
;
; craft_bullet_y[i] = 255;
;
	ldy     _i
	lda     #$FF
	sta     _craft_bullet_y,y
;
; }else{
;
	jmp     L07CD
;
; craft_bullet_y[i] += scroll_amount;
;
L07D7:	lda     #<(_craft_bullet_y)
	ldx     #>(_craft_bullet_y)
	clc
	adc     _i
	bcc     L07E2
	inx
L07E2:	sta     sreg
	stx     sreg+1
	sta     ptr1
	stx     ptr1+1
	ldy     #$00
	lda     (ptr1),y
	clc
	adc     _temp1
	sta     (sreg),y
;
; for(i=0; i<ENEMY_BULLET_COUNT; ++i){
;
L07CD:	inc     _i
	jmp     L07CB
;
; scr -= scroll_amount;
;
L07CC:	lda     _temp1
	eor     #$FF
	sec
	adc     _scr
	sta     _scr
	lda     #$FF
	adc     _scr+1
	sta     _scr+1
;
; if(scr<0) scr+=240*2;
;
	ldx     _scr+1
	cpx     #$80
	bcc     L07E6
	lda     #$E0
	clc
	adc     _scr
	sta     _scr
	lda     #$01
	adc     _scr+1
	sta     _scr+1
;
; row_index = scr>>3;
;
L07E6:	lda     _scr
	ldx     _scr+1
	jsr     asrax3
	sta     _temp0
;
; if(row_index>=60) row_index-=60;
;
	cmp     #$3C
	bcc     L07EC
	lda     _temp0
	sec
	sbc     #$3C
	sta     _temp0
;
; if(last_row_index != row_index){
;
L07EC:	ldx     #$00
	lda     _temp0
	cpx     _last_row_index+1
	bne     L0EFA
	cmp     _last_row_index
	jeq     L0BE5
;
; last_row_index = row_index;
;
L0EFA:	lda     _temp0
	sta     _last_row_index
	stx     _last_row_index+1
;
; update_list[2]=32;
;
	lda     #$20
	sta     _update_list+2
;
; if(row_index<30){
;
	lda     _temp0
	cmp     #$1E
	bcs     L07F7
;
; adr = NAMETABLE_A+(row_index<<5);
;
	lda     _temp0
	jsr     aslax4
	stx     tmp1
	asl     a
	rol     tmp1
	sta     _adr
	lda     tmp1
	clc
	adc     #$20
	sta     _adr+1
;
; update_list[0]=MSB(adr)|NT_UPD_HORZ;
;
	ora     #$40
	sta     _update_list
;
; update_list[1]=LSB(adr);
;
	lda     _adr
	sta     _update_list+1
;
; adr=NAMETABLE_A+960+((row_index>>2)<<3);
;
	ldx     #$00
	lda     _temp0
	jsr     asrax2
	jsr     aslax3
	clc
	adc     #$C0
	sta     _adr
	txa
	adc     #$23
;
; }else{
;
	jmp     L0F20
;
; row_index-=30;
;
L07F7:	lda     _temp0
	sec
	sbc     #$1E
	sta     _temp0
;
; adr = NAMETABLE_C+(row_index<<5);
;
	jsr     aslax4
	stx     tmp1
	asl     a
	rol     tmp1
	sta     _adr
	lda     tmp1
	clc
	adc     #$28
	sta     _adr+1
;
; update_list[0]=MSB(adr)|NT_UPD_HORZ;
;
	ora     #$40
	sta     _update_list
;
; update_list[1]=LSB(adr);
;
	lda     _adr
	sta     _update_list+1
;
; adr=NAMETABLE_C+960+((row_index>>2)<<3);
;
	ldx     #$00
	lda     _temp0
	jsr     asrax2
	jsr     aslax3
	clc
	adc     #$C0
	sta     _adr
	txa
	adc     #$2B
L0F20:	sta     _adr+1
;
; update_list[35]=MSB(adr)|NT_UPD_HORZ;//set attribute table update address
;
	ora     #$40
	sta     _update_list+35
;
; update_list[36]=LSB(adr);
;
	lda     _adr
	sta     _update_list+36
;
; if(row_index&1){ // build new line
;
	lda     _temp0
	and     #$01
	jeq     L0A01
;
; if((wall_hit_y[0]&0xF) != 0xF){
;
	lda     _wall_hit_y
	and     #$0F
	cmp     #$0F
	beq     L083C
;
; wall_hit_y[0]++;
;
	lda     _wall_hit_y
	clc
	adc     #$01
	sta     _wall_hit_y
;
; if((wall_hit_y[1]&0xF) != 0xF){
;
L083C:	lda     _wall_hit_y+1
	and     #$0F
	cmp     #$0F
	beq     L0843
;
; wall_hit_y[1]++;
;
	lda     _wall_hit_y+1
	clc
	adc     #$01
	sta     _wall_hit_y+1
;
; if((wall_hit_y[0]&0xF0) != 0xF0){
;
L0843:	lda     _wall_hit_y
	and     #$F0
	cmp     #$F0
	beq     L084A
;
; wall_hit_y[0]+=0x10;
;
	lda     #$10
	clc
	adc     _wall_hit_y
	sta     _wall_hit_y
;
; if((wall_hit_y[1]&0xF0) != 0xF0){
;
L084A:	lda     _wall_hit_y+1
	and     #$F0
	cmp     #$F0
	beq     L0852
;
; wall_hit_y[1]+=0x10;
;
	lda     #$10
	clc
	adc     _wall_hit_y+1
	sta     _wall_hit_y+1
;
; for(i=2; i<16; i++){
;
L0852:	lda     #$02
L0EFD:	sta     _i
	cmp     #$10
	bcs     L085B
;
; prev_line[i] = current_line[i];
;
	lda     #<(_prev_line)
	ldx     #>(_prev_line)
	clc
	adc     _i
	bcc     L0864
	inx
L0864:	sta     ptr1
	stx     ptr1+1
	ldy     _i
	lda     _current_line,y
	ldy     #$00
	sta     (ptr1),y
;
; current_line[i] = next_line[i];
;
	lda     #<(_current_line)
	ldx     #>(_current_line)
	clc
	adc     _i
	bcc     L086A
	inx
L086A:	sta     ptr1
	stx     ptr1+1
	ldy     _i
	lda     _next_line,y
	ldy     #$00
	sta     (ptr1),y
;
; if(i==2 || i==15){
;
	lda     _i
	cmp     #$02
	beq     L086F
	lda     _i
	cmp     #$0F
	bne     L086E
;
; if(rand8() < 30){
;
L086F:	jsr     _rand8
	cmp     #$1E
	bcs     L085C
;
; if(next_line[i] == WALL) next_line[i] = GRASS;
;
	ldy     _i
	lda     _next_line,y
	cmp     #$01
;
; else next_line[i] = WALL;
;
	beq     L086E
	ldy     _i
	lda     #$01
;
; } else {
;
	jmp     L0EC0
;
; next_line[i] = GRASS;
;
L086E:	ldy     _i
	lda     #$00
L0EC0:	sta     _next_line,y
;
; for(i=2; i<16; i++){
;
L085C:	lda     _i
	clc
	adc     #$01
	jmp     L0EFD
;
; wall_count -= (wall_count>>3);
;
L085B:	ldx     #$00
	lda     _wall_count
	jsr     asrax3
	eor     #$FF
	sec
	adc     _wall_count
	sta     _wall_count
;
; if(wall_count>0) wall_count--;
;
	lda     _wall_count
	beq     L0888
	lda     _wall_count
	sec
	sbc     #$01
	sta     _wall_count
;
; if(has_big_wall) has_big_wall--;
;
L0888:	lda     _has_big_wall
	beq     L088B
	lda     _has_big_wall
	sec
	sbc     #$01
	sta     _has_big_wall
;
; if(wall_count < 2 && (rand8()<150)){
;
L088B:	lda     _wall_count
	cmp     #$02
	jcs     L08CF
	jsr     _rand8
	cmp     #$96
	jcs     L08CF
;
; wall_count = 0;
;
	lda     #$00
	sta     _wall_count
;
; random = rand8();
;
	jsr     _rand8
	sta     _temp2
;
; if(has_big_wall) selected_grid = WALL;
;
	lda     _has_big_wall
;
; else if(random < 60) selected_grid = WATER;
;
	bne     L08A6
	lda     _temp2
	cmp     #$3C
	bcs     L089C
	lda     #$02
;
; else if(random < 120) selected_grid = FOREST;
;
	jmp     L0EC1
L089C:	lda     _temp2
	cmp     #$78
	bcs     L08A1
	lda     #$04
;
; else if(random < 180){
;
	jmp     L0EC1
L08A1:	lda     _temp2
	cmp     #$B4
	bcs     L08A6
;
; selected_grid = WALL_BIG;
;
	lda     #$05
	sta     _temp1
;
; has_big_wall = 2;
;
	lda     #$02
	sta     _has_big_wall
;
; } else {
;
	jmp     L08AC
;
; selected_grid = WALL;
;
L08A6:	lda     #$01
L0EC1:	sta     _temp1
;
; grid_start = 4+(rand8()&1)+(rand8()&3)+(rand8()&5);
;
L08AC:	jsr     _rand8
	ldx     #$00
	and     #$01
	clc
	adc     #$04
	bcc     L08B2
	inx
L08B2:	jsr     pushax
	jsr     _rand8
	and     #$03
	jsr     tosadda0
	jsr     pushax
	jsr     _rand8
	and     #$05
	jsr     tosadda0
	sta     _temp2
;
; grid_end = grid_start;
;
	sta     _temp3
;
; if(rand8()&1) grid_start--;
;
	jsr     _rand8
	and     #$01
	beq     L08B7
	lda     _temp2
	sec
	sbc     #$01
	sta     _temp2
;
; if(rand8()&1) grid_end++;
;
L08B7:	jsr     _rand8
	and     #$01
	beq     L08BA
	lda     _temp3
	clc
	adc     #$01
	sta     _temp3
;
; if(selected_grid != WALL_BIG){
;
L08BA:	lda     _temp1
	cmp     #$05
	beq     L08BD
;
; if(rand8()&1) grid_start--;
;
	jsr     _rand8
	and     #$01
	beq     L08BF
	lda     _temp2
	sec
	sbc     #$01
	sta     _temp2
;
; if(rand8()&1) grid_end++;
;
L08BF:	jsr     _rand8
	and     #$01
	beq     L08CC
	lda     _temp3
	clc
	adc     #$01
	sta     _temp3
;
; }else{
;
	jmp     L08CC
;
; if(grid_start == grid_end) (rand8()&1)?grid_end++:grid_start--;
;
L08BD:	lda     _temp3
	cmp     _temp2
	bne     L08CC
	jsr     _rand8
	and     #$01
	beq     L08CA
	lda     _temp3
	clc
	adc     #$01
	sta     _temp3
	jmp     L08CC
L08CA:	lda     _temp2
	sec
	sbc     #$01
	sta     _temp2
;
; for(i=grid_start; i<=grid_end; i++){
;
L08CC:	lda     _temp2
L0EFE:	sta     _i
	sec
	sbc     _temp3
	bcc     L08D1
	bne     L08CF
;
; next_line[i] = selected_grid;
;
L08D1:	ldy     _i
	lda     _temp1
	sta     _next_line,y
;
; wall_count++;
;
	lda     _wall_count
	clc
	adc     #$01
	sta     _wall_count
;
; for(i=grid_start; i<=grid_end; i++){
;
	lda     _i
	clc
	adc     #$01
	jmp     L0EFE
;
; for(i=2; i<16; i++){
;
L08CF:	lda     #$02
L0F02:	sta     _i
	cmp     #$10
	jcs     L08DC
;
; if(next_line[i] == GRASS){
;
	ldy     _i
	lda     _next_line,y
	jne     L08DD
;
; if(current_line[i] == WALL_BIG){
;
	ldy     _i
	lda     _current_line,y
	cmp     #$05
	bne     L08E7
;
; next_line[i] = WALL;
;
	ldy     _i
	lda     #$01
	sta     _next_line,y
;
; }else{
;
	jmp     L08DD
;
; chance_to_grow = ((next_line[i+1]&WALL&(i<13))<<1)+
;
L08E7:	ldx     #$00
	lda     _i
	clc
	adc     #$01
	bcc     L08F5
	inx
L08F5:	sta     ptr1
	txa
	clc
	adc     #>(_next_line)
	sta     ptr1+1
	ldy     #<(_next_line)
	lda     (ptr1),y
	and     #$01
	jsr     pusha0
	lda     _i
	cmp     #$0D
	jsr     boolult
	jsr     tosanda0
	asl     a
	bcc     L0EA6
	ldx     #$01
;
; ((next_line[i-1]&WALL&(i>3))<<1)+
;
L0EA6:	sta     sreg
	stx     sreg+1
	ldx     #$00
	lda     _i
	sec
	sbc     #$01
	bcs     L08FA
	dex
L08FA:	sta     ptr1
	txa
	clc
	adc     #>(_next_line)
	sta     ptr1+1
	ldy     #<(_next_line)
	lda     (ptr1),y
	and     #$01
	sta     ptr1
	lda     _i
	cmp     #$04
	lda     #$00
	rol     a
	and     ptr1
	ldx     #$00
	asl     a
	bcc     L0F18
	inx
	clc
L0F18:	adc     sreg
;
; ((current_line[i]&WALL)<<1)+
;
	sta     ptr1
;
; ((next_line[i-1]&WALL&(i>3))<<1)+
;
	txa
	adc     sreg+1
;
; ((current_line[i]&WALL)<<1)+
;
	sta     ptr1+1
	ldy     _i
	lda     _current_line,y
	ldx     #$00
	and     #$01
	asl     a
	bcc     L0ED1
	inx
	clc
L0ED1:	adc     ptr1
;
; ((current_line[i-1]&WALL&(i>3)))+
;
	sta     sreg
;
; ((current_line[i]&WALL)<<1)+
;
	txa
	adc     ptr1+1
;
; ((current_line[i-1]&WALL&(i>3)))+
;
	sta     sreg+1
	ldx     #$00
	lda     _i
	sec
	sbc     #$01
	bcs     L0903
	dex
L0903:	sta     ptr1
	txa
	clc
	adc     #>(_current_line)
	sta     ptr1+1
	ldy     #<(_current_line)
	lda     (ptr1),y
	and     #$01
	sta     ptr1
	lda     _i
	cmp     #$04
	lda     #$00
	rol     a
	and     ptr1
	clc
	adc     sreg
	ldx     sreg+1
	bcc     L0F0F
	inx
;
; ((current_line[i+1]&WALL&(i<13)));
;
L0F0F:	jsr     pushax
	ldx     #$00
	lda     _i
	clc
	adc     #$01
	bcc     L0908
	inx
L0908:	sta     ptr1
	txa
	clc
	adc     #>(_current_line)
	sta     ptr1+1
	ldy     #<(_current_line)
	lda     (ptr1),y
	and     #$01
	jsr     pusha0
	lda     _i
	cmp     #$0D
	jsr     boolult
	jsr     tosanda0
	jsr     tosadda0
	sta     _temp3
;
; grow_chance_reduction = (wall_count>>2);
;
	ldx     #$00
	lda     _wall_count
	jsr     asrax2
	sta     _temp2
;
; if(chance_to_grow > grow_chance_reduction){
;
	lda     _temp3
	sec
	sbc     _temp2
	bcc     L090D
	beq     L090D
;
; chance_to_grow -= grow_chance_reduction;
;
	lda     _temp2
	eor     #$FF
	sec
	adc     _temp3
;
; } else {
;
	jmp     L0EC3
;
; chance_to_grow = 0;
;
L090D:	lda     #$00
L0EC3:	sta     _temp3
;
; if(chance_to_grow >= 4){
;
	cmp     #$04
;
; }else if(chance_to_grow >= 2){
;
	bcs     L0F35
	lda     _temp3
	cmp     #$02
	bcc     L091E
;
; if(rand8()&1){
;
	jsr     _rand8
	and     #$01
	beq     L091E
;
; next_line[i] = WALL;
;
L0F35:	ldy     _i
	lda     #$01
	sta     _next_line,y
;
; wall_count++;
;
	lda     _wall_count
	clc
	adc     #$01
	sta     _wall_count
;
; chance_to_grow = ((next_line[i+1]==WATER)<<1)+
;
L091E:	ldx     #$00
	lda     _i
	clc
	adc     #$01
	bcc     L092A
	inx
L092A:	sta     ptr1
	txa
	clc
	adc     #>(_next_line)
	sta     ptr1+1
	ldy     #<(_next_line)
	lda     (ptr1),y
	cmp     #$02
	jsr     booleq
	asl     a
	bcc     L0EA9
	inx
;
; ((next_line[i-1]==WATER)<<1)+
;
L0EA9:	jsr     pushax
	ldx     #$00
	lda     _i
	sec
	sbc     #$01
	bcs     L092E
	dex
L092E:	sta     ptr1
	txa
	clc
	adc     #>(_next_line)
	sta     ptr1+1
	ldy     #<(_next_line)
	lda     (ptr1),y
	cmp     #$02
	jsr     booleq
	asl     a
	bcc     L0EAA
	inx
L0EAA:	jsr     tosaddax
;
; ((current_line[i]==WATER)<<1)+
;
	jsr     pushax
	ldy     _i
	lda     _current_line,y
	cmp     #$02
	jsr     booleq
	asl     a
	bcc     L0EAB
	inx
L0EAB:	jsr     tosaddax
;
; ((current_line[i-1]==WATER))+
;
	jsr     pushax
	ldx     #$00
	lda     _i
	sec
	sbc     #$01
	bcs     L0936
	dex
L0936:	sta     ptr1
	txa
	clc
	adc     #>(_current_line)
	sta     ptr1+1
	ldy     #<(_current_line)
	lda     (ptr1),y
	cmp     #$02
	jsr     booleq
	jsr     tosadda0
;
; ((current_line[i+1]==WATER));
;
	jsr     pushax
	ldx     #$00
	lda     _i
	clc
	adc     #$01
	bcc     L093A
	inx
L093A:	sta     ptr1
	txa
	clc
	adc     #>(_current_line)
	sta     ptr1+1
	ldy     #<(_current_line)
	lda     (ptr1),y
	cmp     #$02
	jsr     booleq
	jsr     tosadda0
	sta     _temp3
;
; if(chance_to_grow > grow_chance_reduction){
;
	sec
	sbc     _temp2
	bcc     L093B
	beq     L093B
;
; chance_to_grow -= grow_chance_reduction;
;
	lda     _temp2
	eor     #$FF
	sec
	adc     _temp3
;
; } else {
;
	jmp     L0EC5
;
; chance_to_grow = 0;
;
L093B:	lda     #$00
L0EC5:	sta     _temp3
;
; if(chance_to_grow >= 5){
;
	cmp     #$05
;
; }else if(chance_to_grow >= 3){
;
	bcs     L0F36
	lda     _temp3
	cmp     #$03
	bcc     L094C
;
; if(rand8()&3){
;
	jsr     _rand8
	and     #$03
	beq     L094C
;
; next_line[i] = WATER;
;
L0F36:	ldy     _i
	lda     #$02
	sta     _next_line,y
;
; wall_count++;
;
	lda     _wall_count
	clc
	adc     #$01
	sta     _wall_count
;
; chance_to_grow = ((next_line[i+1]==FOREST)<<1)+
;
L094C:	ldx     #$00
	lda     _i
	clc
	adc     #$01
	bcc     L0958
	inx
L0958:	sta     ptr1
	txa
	clc
	adc     #>(_next_line)
	sta     ptr1+1
	ldy     #<(_next_line)
	lda     (ptr1),y
	cmp     #$04
	jsr     booleq
	asl     a
	bcc     L0EAC
	inx
;
; ((next_line[i-1]==FOREST)<<1)+
;
L0EAC:	jsr     pushax
	ldx     #$00
	lda     _i
	sec
	sbc     #$01
	bcs     L095C
	dex
L095C:	sta     ptr1
	txa
	clc
	adc     #>(_next_line)
	sta     ptr1+1
	ldy     #<(_next_line)
	lda     (ptr1),y
	cmp     #$04
	jsr     booleq
	asl     a
	bcc     L0EAD
	inx
L0EAD:	jsr     tosaddax
;
; ((current_line[i]==FOREST)<<1)+
;
	jsr     pushax
	ldy     _i
	lda     _current_line,y
	cmp     #$04
	jsr     booleq
	asl     a
	bcc     L0EAE
	inx
L0EAE:	jsr     tosaddax
;
; ((current_line[i-1]==FOREST))+
;
	jsr     pushax
	ldx     #$00
	lda     _i
	sec
	sbc     #$01
	bcs     L0964
	dex
L0964:	sta     ptr1
	txa
	clc
	adc     #>(_current_line)
	sta     ptr1+1
	ldy     #<(_current_line)
	lda     (ptr1),y
	cmp     #$04
	jsr     booleq
	jsr     tosadda0
;
; ((current_line[i+1]==FOREST));
;
	jsr     pushax
	ldx     #$00
	lda     _i
	clc
	adc     #$01
	bcc     L0968
	inx
L0968:	sta     ptr1
	txa
	clc
	adc     #>(_current_line)
	sta     ptr1+1
	ldy     #<(_current_line)
	lda     (ptr1),y
	cmp     #$04
	jsr     booleq
	jsr     tosadda0
	sta     _temp3
;
; if(chance_to_grow > grow_chance_reduction){
;
	sec
	sbc     _temp2
	bcc     L0969
	beq     L0969
;
; chance_to_grow -= grow_chance_reduction;
;
	lda     _temp2
	eor     #$FF
	sec
	adc     _temp3
;
; } else {
;
	jmp     L0EC7
;
; chance_to_grow = 0;
;
L0969:	lda     #$00
L0EC7:	sta     _temp3
;
; if(chance_to_grow >= 5){
;
	cmp     #$05
;
; }else if(chance_to_grow >= 3){
;
	bcs     L0F37
	lda     _temp3
	cmp     #$03
	bcc     L08DD
;
; if(rand8()&3){
;
	jsr     _rand8
	and     #$03
	beq     L08DD
;
; next_line[i] = FOREST;
;
L0F37:	ldy     _i
	lda     #$04
	sta     _next_line,y
;
; wall_count++;
;
	lda     _wall_count
	clc
	adc     #$01
	sta     _wall_count
;
; for(i=2; i<16; i++){
;
L08DD:	lda     _i
	clc
	adc     #$01
	jmp     L0F02
;
; for(i=2; i<16; i++){
;
L08DC:	lda     #$02
L0F03:	sta     _i
	cmp     #$10
	bcs     L0982
;
; if(next_line[i] == WALL && (next_line[i-1] == WALL_BIG || next_line[i+1] == WALL_BIG)){
;
	ldy     _i
	lda     _next_line,y
	cmp     #$01
	bne     L0983
	ldx     #$00
	lda     _i
	sec
	sbc     #$01
	bcs     L0990
	dex
L0990:	sta     ptr1
	txa
	clc
	adc     #>(_next_line)
	sta     ptr1+1
	ldy     #<(_next_line)
	lda     (ptr1),y
	cmp     #$05
	beq     L098A
	ldx     #$00
	lda     _i
	clc
	adc     #$01
	bcc     L0992
	inx
L0992:	sta     ptr1
	txa
	clc
	adc     #>(_next_line)
	sta     ptr1+1
	ldy     #<(_next_line)
	lda     (ptr1),y
	cmp     #$05
	bne     L0983
;
; if(i==2 || i == 15) next_line[i] = GRASS;
;
L098A:	lda     _i
	cmp     #$02
	beq     L0996
	lda     _i
	cmp     #$0F
	bne     L0995
L0996:	ldy     _i
	lda     #$00
;
; else next_line[i] = WALL_BIG;
;
	jmp     L0EC9
L0995:	ldy     _i
	lda     #$05
L0EC9:	sta     _next_line,y
;
; for(i=2; i<16; i++){
;
L0983:	lda     _i
	clc
	adc     #$01
	jmp     L0F03
;
; for(i=2; i<16; i++){
;
L0982:	lda     #$02
L0F04:	sta     _i
	cmp     #$10
	jcs     L09A2
;
; if(current_line[i] == WALL && 
;
	ldy     _i
	lda     _current_line,y
	cmp     #$01
	jne     L09A3
;
; ((current_line[i-1]&WALL) && (current_line[i+1]&WALL) && 
;
	ldx     #$00
	lda     _i
	sec
	sbc     #$01
	bcs     L09B1
	dex
L09B1:	sta     ptr1
	txa
	clc
	adc     #>(_current_line)
	sta     ptr1+1
	ldy     #<(_current_line)
	lda     (ptr1),y
	and     #$01
	jeq     L09A3
	ldx     #$00
	lda     _i
	clc
	adc     #$01
	bcc     L09B5
	inx
L09B5:	sta     ptr1
	txa
	clc
	adc     #>(_current_line)
	sta     ptr1+1
	ldy     #<(_current_line)
	lda     (ptr1),y
	and     #$01
	jeq     L09A3
;
; (next_line[i]&WALL) && (prev_line[i]&WALL) 
;
	ldy     _i
	lda     _next_line,y
	and     #$01
	jeq     L09A3
	ldy     _i
	lda     _prev_line,y
	and     #$01
;
; && (next_line[i-1]&WALL) && (next_line[i+1]&WALL) 
;
	beq     L09A3
	ldx     #$00
	lda     _i
	sec
	sbc     #$01
	bcs     L09BE
	dex
L09BE:	sta     ptr1
	txa
	clc
	adc     #>(_next_line)
	sta     ptr1+1
	ldy     #<(_next_line)
	lda     (ptr1),y
	and     #$01
	beq     L09A3
	ldx     #$00
	lda     _i
	clc
	adc     #$01
	bcc     L09C1
	inx
L09C1:	sta     ptr1
	txa
	clc
	adc     #>(_next_line)
	sta     ptr1+1
	ldy     #<(_next_line)
	lda     (ptr1),y
	and     #$01
;
; && (prev_line[i-1]&WALL) && (prev_line[i+1]&WALL))
;
	beq     L09A3
	ldx     #$00
	lda     _i
	sec
	sbc     #$01
	bcs     L09C4
	dex
L09C4:	sta     ptr1
	txa
	clc
	adc     #>(_prev_line)
	sta     ptr1+1
	ldy     #<(_prev_line)
	lda     (ptr1),y
	and     #$01
	beq     L09A3
	ldx     #$00
	lda     _i
	clc
	adc     #$01
	bcc     L09C7
	inx
L09C7:	sta     ptr1
	txa
	clc
	adc     #>(_prev_line)
	sta     ptr1+1
	ldy     #<(_prev_line)
	lda     (ptr1),y
	and     #$01
	beq     L09A3
;
; current_line[i] = WALL_GREEN;
;
	ldy     _i
	lda     #$03
	sta     _current_line,y
;
; for(i=2; i<16; i++){
;
L09A3:	lda     _i
	clc
	adc     #$01
	jmp     L0F04
;
; if((current_line[2]&WALL) && (prev_line[2]&WALL) && (next_line[2]&WALL)){
;
L09A2:	lda     _current_line+2
	and     #$01
	beq     L09CE
	lda     _prev_line+2
	and     #$01
	beq     L09CE
	lda     _next_line+2
	and     #$01
	beq     L09CE
;
; current_line[1] = WALL_GREEN;
;
	lda     #$03
	sta     _current_line+1
;
; if((current_line[15]&WALL) && (prev_line[15]&WALL) && (next_line[15]&WALL)){
;
L09CE:	lda     _current_line+15
	and     #$01
	beq     L09DB
	lda     _prev_line+15
	and     #$01
	beq     L09DB
	lda     _next_line+15
	and     #$01
	beq     L09DB
;
; current_line[16] = WALL_GREEN;
;
	lda     #$03
	sta     _current_line+16
;
; for(i=14; i>0; i--){
;
L09DB:	lda     #$0E
L0F05:	sta     _i
	lda     _i
	jeq     L09E9
;
; blocked[i] = blocked[i-1];
;
	ldx     #$00
	lda     _i
	asl     a
	bcc     L0ED2
	inx
	clc
L0ED2:	adc     #<(_blocked)
	tay
	txa
	adc     #>(_blocked)
	tax
	tya
	jsr     pushax
	ldx     #$00
	lda     _i
	sec
	sbc     #$01
	bcs     L09F4
	dex
L09F4:	stx     tmp1
	asl     a
	rol     tmp1
	clc
	adc     #<(_blocked)
	sta     ptr1
	lda     tmp1
	adc     #>(_blocked)
	sta     ptr1+1
	ldy     #$01
	lda     (ptr1),y
	tax
	dey
	lda     (ptr1),y
	jsr     staxspidx
;
; bullet_blocked[i] = bullet_blocked[i-1];
;
	ldx     #$00
	lda     _i
	asl     a
	bcc     L0ED3
	inx
	clc
L0ED3:	adc     #<(_bullet_blocked)
	tay
	txa
	adc     #>(_bullet_blocked)
	tax
	tya
	jsr     pushax
	ldx     #$00
	lda     _i
	sec
	sbc     #$01
	bcs     L09F9
	dex
L09F9:	stx     tmp1
	asl     a
	rol     tmp1
	clc
	adc     #<(_bullet_blocked)
	sta     ptr1
	lda     tmp1
	adc     #>(_bullet_blocked)
	sta     ptr1+1
	ldy     #$01
	lda     (ptr1),y
	tax
	dey
	lda     (ptr1),y
	jsr     staxspidx
;
; for(i=14; i>0; i--){
;
	lda     _i
	sec
	sbc     #$01
	jmp     L0F05
;
; blocked[0] = 0;
;
L09E9:	sta     _blocked
	sta     _blocked+1
;
; bullet_blocked[0] = 0;
;
	sta     _bullet_blocked
	sta     _bullet_blocked+1
;
; for(i=0; i<16; i++){
;
L0F06:	sta     _i
	cmp     #$10
	bcs     L0A01
;
; if(current_line[i+1] != GRASS){
;
	ldx     #$00
	lda     _i
	clc
	adc     #$01
	bcc     L0A0B
	inx
L0A0B:	sta     ptr1
	txa
	clc
	adc     #>(_current_line)
	sta     ptr1+1
	ldy     #<(_current_line)
	lda     (ptr1),y
	beq     L0A02
;
; blocked[0] |= (1<<i);
;
	lda     _blocked
	ldx     _blocked+1
	jsr     pushax
	lda     #$01
	jsr     pusha0
	lda     _i
	jsr     tosaslax
	jsr     tosorax
	sta     _blocked
	stx     _blocked+1
;
; if(current_line[i+1] != WATER){
;
	ldx     #$00
	lda     _i
	clc
	adc     #$01
	bcc     L0A13
	inx
L0A13:	sta     ptr1
	txa
	clc
	adc     #>(_current_line)
	sta     ptr1+1
	ldy     #<(_current_line)
	lda     (ptr1),y
	cmp     #$02
	beq     L0A02
;
; bullet_blocked[0] |= (1<<i);
;
	lda     _bullet_blocked
	ldx     _bullet_blocked+1
	jsr     pushax
	lda     #$01
	jsr     pusha0
	lda     _i
	jsr     tosaslax
	jsr     tosorax
	sta     _bullet_blocked
	stx     _bullet_blocked+1
;
; for(i=0; i<16; i++){
;
L0A02:	lda     _i
	clc
	adc     #$01
	jmp     L0F06
;
; for(i=0; i<32; i++){
;
L0A01:	lda     #$00
L0F0E:	sta     _i
	cmp     #$20
	jcs     L0A19
;
; column_index = 1+(i>>1);
;
	ldx     #$00
	lda     _i
	jsr     asrax1
	clc
	adc     #$01
	sta     _temp3
;
; cell_index = ((((row_index&1)==0)<<1)+(i&1));
;
	lda     _temp0
	and     #$01
	jsr     booleq
	asl     a
	sta     ptr1
	lda     _i
	and     #$01
	clc
	adc     ptr1
	sta     _temp1
;
; switch(current_line[column_index]){
;
	ldy     _temp3
	lda     _current_line,y
;
; }
;
	jeq     L0ABA
	cmp     #$01
	beq     L0A34
	cmp     #$02
	beq     L0A34
	cmp     #$03
	jeq     L0ABA
	cmp     #$04
	jeq     L0B1D
	cmp     #$05
	jeq     L0ACC
	jmp     L0A1A
;
; cell_type = current_line[column_index];
;
L0A34:	ldy     _temp3
	lda     _current_line,y
	sta     _temp4
;
; if(cell_index&1){
;
	lda     _temp1
	and     #$01
	beq     L0A39
;
; same_neigbour_dirs = (current_line[column_index+1]&cell_type)!=0;
;
	lda     _temp3
	clc
	adc     #$01
	bcc     L0A3F
	inx
L0A3F:	sta     ptr1
	txa
	clc
	adc     #>(_current_line)
	sta     ptr1+1
	ldy     #<(_current_line)
	lda     (ptr1),y
	sta     ptr1
	lda     _temp4
	and     ptr1
	jsr     boolne
	sta     _temp2
;
; if(cell_index<2){
;
	lda     _temp1
	cmp     #$02
	bcs     L0A41
;
; same_neigbour_dirs += (((prev_line[column_index+1]&cell_type)!=0)<<2);
;
	lda     _temp3
	clc
	adc     #$01
	bcc     L0A49
	inx
L0A49:	sta     ptr1
	txa
	clc
	adc     #>(_prev_line)
	sta     ptr1+1
	ldy     #<(_prev_line)
	lda     (ptr1),y
	sta     ptr1
	lda     _temp4
	and     ptr1
	jsr     boolne
;
; }else{
;
	jmp     L0F24
;
; same_neigbour_dirs += ((next_line[column_index+1]==cell_type)<<2);
;
L0A41:	lda     _temp3
	clc
	adc     #$01
	bcc     L0A69
	inx
;
; }else{
;
	jmp     L0A69
;
; same_neigbour_dirs = (current_line[column_index-1]&cell_type)!=0;
;
L0A39:	lda     _temp3
	sec
	sbc     #$01
	bcs     L0A57
	dex
L0A57:	sta     ptr1
	txa
	clc
	adc     #>(_current_line)
	sta     ptr1+1
	ldy     #<(_current_line)
	lda     (ptr1),y
	sta     ptr1
	lda     _temp4
	and     ptr1
	jsr     boolne
	sta     _temp2
;
; if(cell_index<2){
;
	lda     _temp1
	cmp     #$02
	bcs     L0A59
;
; same_neigbour_dirs += (((prev_line[column_index-1]&cell_type)!=0)<<2);
;
	lda     _temp3
	sec
	sbc     #$01
	bcs     L0A61
	dex
L0A61:	sta     ptr1
	txa
	clc
	adc     #>(_prev_line)
	sta     ptr1+1
	ldy     #<(_prev_line)
	lda     (ptr1),y
	sta     ptr1
	lda     _temp4
	and     ptr1
	jsr     boolne
;
; }else{
;
	jmp     L0F24
;
; same_neigbour_dirs += ((next_line[column_index-1]==cell_type)<<2);
;
L0A59:	lda     _temp3
	sec
	sbc     #$01
	bcs     L0A69
	dex
L0A69:	sta     ptr1
	txa
	clc
	adc     #>(_next_line)
	sta     ptr1+1
	ldy     #<(_next_line)
	lda     (ptr1),y
	cmp     _temp4
	jsr     booleq
L0F24:	asl     a
	asl     a
	clc
	adc     _temp2
	sta     _temp2
;
; if(cell_index<2){
;
	lda     _temp1
	cmp     #$02
	bcs     L0A6A
;
; same_neigbour_dirs += (((prev_line[column_index]&cell_type)!=0)<<1);
;
	ldy     _temp3
	lda     _prev_line,y
	sta     ptr1
	lda     _temp4
	and     ptr1
	jsr     boolne
;
; }else{
;
	jmp     L0F1E
;
; same_neigbour_dirs += ((next_line[column_index]==cell_type)<<1);
;
L0A6A:	ldy     _temp3
	lda     _next_line,y
	cmp     _temp4
	jsr     booleq
L0F1E:	asl     a
	clc
	adc     _temp2
	sta     _temp2
;
; if(same_neigbour_dirs == 7){
;
	cmp     #$07
	bne     L0A7B
;
; if(rand8()&15){
;
	jsr     _rand8
	and     #$0F
	beq     L0A7D
;
; update_list[3+i] = (cell_type == WALL?0:0xEC);
;
	ldx     #$00
	lda     _i
	clc
	adc     #$03
	bcc     L0ED4
	inx
	clc
L0ED4:	adc     #<(_update_list)
	tay
	txa
	adc     #>(_update_list)
	tax
	tya
	jsr     pushax
	lda     _temp4
	cmp     #$01
	bne     L0A84
	lda     #$00
	jmp     L0F0A
L0A84:	lda     #$EC
;
; }else{
;
	jmp     L0F0A
;
; update_list[3+i] =  (cell_type == WALL?0x66:0xCC) + (rand8()&3);
;
L0A7D:	tax
	lda     _i
	clc
	adc     #$03
	bcc     L0ED5
	inx
	clc
L0ED5:	adc     #<(_update_list)
	tay
	txa
	adc     #>(_update_list)
	tax
	tya
	jsr     pushax
	lda     _temp4
	cmp     #$01
	bne     L0A8E
	lda     #$66
	jmp     L0A90
L0A8E:	lda     #$CC
L0A90:	jsr     pusha0
	jsr     _rand8
	and     #$03
	jsr     tosadda0
;
; }else{
;
	jmp     L0F0A
;
; if(same_neigbour_dirs>=4) same_neigbour_dirs -= 4;
;
L0A7B:	lda     _temp2
	cmp     #$04
	bcc     L0A94
	lda     _temp2
	sec
	sbc     #$04
	sta     _temp2
;
; if(cell_type == WALL){
;
L0A94:	lda     _temp4
	cmp     #$01
	bne     L0A98
;
; update_list[3+i] = wall_tiles[(cell_index<<2)+same_neigbour_dirs];
;
	lda     _i
	clc
	adc     #$03
	bcc     L0ED6
	inx
	clc
L0ED6:	adc     #<(_update_list)
	sta     sreg
	txa
	adc     #>(_update_list)
	sta     sreg+1
	ldx     #$00
	lda     _temp1
	jsr     aslax2
	clc
	adc     _temp2
	bcc     L0EA3
	inx
L0EA3:	sta     ptr1
	txa
	clc
	adc     #>(_wall_tiles)
	sta     ptr1+1
	ldy     #<(_wall_tiles)
;
; }else{
;
	jmp     L0F16
;
; update_list[3+i] = water_tiles[(cell_index<<2)+same_neigbour_dirs];
;
L0A98:	lda     _i
	clc
	adc     #$03
	bcc     L0ED7
	inx
	clc
L0ED7:	adc     #<(_update_list)
	sta     sreg
	txa
	adc     #>(_update_list)
	sta     sreg+1
	ldx     #$00
	lda     _temp1
	jsr     aslax2
	clc
	adc     _temp2
	bcc     L0EA4
	inx
L0EA4:	sta     ptr1
	txa
	clc
	adc     #>(_water_tiles)
	sta     ptr1+1
	ldy     #<(_water_tiles)
L0F16:	lda     (ptr1),y
	ldy     #$00
	sta     (sreg),y
;
; if(same_neigbour_dirs==1 || same_neigbour_dirs == 2) update_list[3+i] += (rand8()&3);
;
	lda     _temp2
	cmp     #$01
	beq     L0AA8
	lda     _temp2
	cmp     #$02
	bne     L0AA7
L0AA8:	ldx     #$00
	lda     _i
	clc
	adc     #$03
	bcc     L0ED8
	inx
	clc
L0ED8:	adc     #<(_update_list)
	tay
	txa
	adc     #>(_update_list)
	tax
	tya
	jsr     pushax
	sta     ptr1
	stx     ptr1+1
	ldx     #$00
	lda     (ptr1,x)
	jsr     pusha0
	jsr     _rand8
	and     #$03
	jsr     tosadda0
;
; else if(same_neigbour_dirs==0 && cell_type == WALL) update_list[3+i]  += (rand8()&1);
;
	jmp     L0F0A
L0AA7:	lda     _temp2
	jne     L0A1A
	lda     _temp4
	cmp     #$01
	jne     L0A1A
	ldx     #$00
	lda     _i
	clc
	adc     #$03
	bcc     L0ED9
	inx
	clc
L0ED9:	adc     #<(_update_list)
	tay
	txa
	adc     #>(_update_list)
	tax
	tya
	jsr     pushax
	sta     ptr1
	stx     ptr1+1
	ldx     #$00
	lda     (ptr1,x)
	jsr     pusha0
	jsr     _rand8
	and     #$01
	jsr     tosadda0
;
; break;
;
	jmp     L0F0A
;
; random = rand8()&0x3F;
;
L0ABA:	jsr     _rand8
	and     #$3F
	sta     _temp4
;
; if(random > 9){
;
	cmp     #$0A
	bcc     L0ABF
;
; update_list[3+i] = 0;
;
	ldx     #$00
	lda     _i
	clc
	adc     #$03
	bcc     L0EDA
	inx
	clc
L0EDA:	adc     #<(_update_list)
	sta     ptr1
	txa
	adc     #>(_update_list)
	sta     ptr1+1
	lda     #$00
	tay
	sta     (ptr1),y
;
; }else{
;
	jmp     L0A1A
;
; update_list[3+i] = 0x60 + random;
;
L0ABF:	ldx     #$00
	lda     _i
	clc
	adc     #$03
	bcc     L0EDB
	inx
	clc
L0EDB:	adc     #<(_update_list)
	sta     ptr1
	txa
	adc     #>(_update_list)
	sta     ptr1+1
	lda     _temp4
	clc
	adc     #$60
	ldy     #$00
	sta     (ptr1),y
;
; break;
;
	jmp     L0A1A
;
; switch(cell_index){
;
L0ACC:	lda     _temp1
;
; }
;
	beq     L0AD1
	cmp     #$01
	beq     L0AE4
	cmp     #$02
	jeq     L0AF7
	cmp     #$03
	jeq     L0B0A
	jmp     L0A1A
;
; if(current_line[column_index-1] != WALL_BIG){
;
L0AD1:	lda     _temp3
	sec
	sbc     #$01
	bcs     L0AD5
	dex
L0AD5:	sta     ptr1
	txa
	clc
	adc     #>(_current_line)
	sta     ptr1+1
	ldy     #<(_current_line)
	lda     (ptr1),y
	cmp     #$05
	beq     L0AD2
;
; update_list[3+i] = 0xA4 + (rand8()&1);
;
	ldx     #$00
	lda     _i
	clc
	adc     #$03
	bcc     L0EDC
	inx
	clc
L0EDC:	adc     #<(_update_list)
	tay
	txa
	adc     #>(_update_list)
	tax
	tya
	jsr     pushax
	jsr     _rand8
	and     #$01
	clc
	adc     #$A4
;
; }else{
;
	jmp     L0F0A
;
; update_list[3+i] = 0x88 + (rand8()&3);
;
L0AD2:	ldx     #$00
	lda     _i
	clc
	adc     #$03
	bcc     L0EDD
	inx
	clc
L0EDD:	adc     #<(_update_list)
	tay
	txa
	adc     #>(_update_list)
	tax
	tya
	jsr     pushax
	jsr     _rand8
	and     #$03
	clc
	adc     #$88
;
; break;
;
	jmp     L0F0A
;
; if(current_line[column_index+1] != WALL_BIG){
;
L0AE4:	lda     _temp3
	clc
	adc     #$01
	bcc     L0AE8
	inx
L0AE8:	sta     ptr1
	txa
	clc
	adc     #>(_current_line)
	sta     ptr1+1
	ldy     #<(_current_line)
	lda     (ptr1),y
	cmp     #$05
	beq     L0AE5
;
; update_list[3+i] = 0xA6 + (rand8()&1);
;
	ldx     #$00
	lda     _i
	clc
	adc     #$03
	bcc     L0EDE
	inx
	clc
L0EDE:	adc     #<(_update_list)
	tay
	txa
	adc     #>(_update_list)
	tax
	tya
	jsr     pushax
	jsr     _rand8
	and     #$01
	clc
	adc     #$A6
;
; }else{
;
	jmp     L0F0A
;
; update_list[3+i] = 0x88 + (rand8()&3);
;
L0AE5:	ldx     #$00
	lda     _i
	clc
	adc     #$03
	bcc     L0EDF
	inx
	clc
L0EDF:	adc     #<(_update_list)
	tay
	txa
	adc     #>(_update_list)
	tax
	tya
	jsr     pushax
	jsr     _rand8
	and     #$03
	clc
	adc     #$88
;
; break;
;
	jmp     L0F0A
;
; if(current_line[column_index-1] != WALL_BIG){
;
L0AF7:	lda     _temp3
	sec
	sbc     #$01
	bcs     L0AFB
	dex
L0AFB:	sta     ptr1
	txa
	clc
	adc     #>(_current_line)
	sta     ptr1+1
	ldy     #<(_current_line)
	lda     (ptr1),y
	cmp     #$05
	beq     L0AF8
;
; update_list[3+i] = 0x94 + (rand8()&1);
;
	ldx     #$00
	lda     _i
	clc
	adc     #$03
	bcc     L0EE0
	inx
	clc
L0EE0:	adc     #<(_update_list)
	tay
	txa
	adc     #>(_update_list)
	tax
	tya
	jsr     pushax
	jsr     _rand8
	and     #$01
	clc
	adc     #$94
;
; }else{
;
	jmp     L0F0A
;
; update_list[3+i] = 0x78 + (rand8()&3);
;
L0AF8:	ldx     #$00
	lda     _i
	clc
	adc     #$03
	bcc     L0EE1
	inx
	clc
L0EE1:	adc     #<(_update_list)
	tay
	txa
	adc     #>(_update_list)
	tax
	tya
	jsr     pushax
	jsr     _rand8
	and     #$03
	clc
	adc     #$78
;
; break;
;
	jmp     L0F0A
;
; if(current_line[column_index+1] != WALL_BIG){
;
L0B0A:	lda     _temp3
	clc
	adc     #$01
	bcc     L0B0E
	inx
L0B0E:	sta     ptr1
	txa
	clc
	adc     #>(_current_line)
	sta     ptr1+1
	ldy     #<(_current_line)
	lda     (ptr1),y
	cmp     #$05
	beq     L0B0B
;
; update_list[3+i] = 0x96 + (rand8()&1);
;
	ldx     #$00
	lda     _i
	clc
	adc     #$03
	bcc     L0EE2
	inx
	clc
L0EE2:	adc     #<(_update_list)
	tay
	txa
	adc     #>(_update_list)
	tax
	tya
	jsr     pushax
	jsr     _rand8
	and     #$01
	clc
	adc     #$96
;
; }else{
;
	jmp     L0F0A
;
; update_list[3+i] = 0x78 + (rand8()&3);
;
L0B0B:	ldx     #$00
	lda     _i
	clc
	adc     #$03
	bcc     L0EE3
	inx
	clc
L0EE3:	adc     #<(_update_list)
	tay
	txa
	adc     #>(_update_list)
	tax
	tya
	jsr     pushax
	jsr     _rand8
	and     #$03
	clc
	adc     #$78
;
; break;
;
	jmp     L0F0A
;
; neighbour_forest_count = 0;
;
L0B1D:	stx     _temp2
;
; switch(cell_index){
;
	lda     _temp1
;
; }
;
	beq     L0B24
	cmp     #$01
	beq     L0B32
	cmp     #$02
	jeq     L0B40
	cmp     #$03
	jeq     L0B4E
	jmp     L0B22
;
; update_list[3+i] = 0x4;
;
L0B24:	lda     _i
	clc
	adc     #$03
	bcc     L0EE4
	inx
	clc
L0EE4:	adc     #<(_update_list)
	sta     ptr1
	txa
	adc     #>(_update_list)
	sta     ptr1+1
	lda     #$04
	ldy     #$00
	sta     (ptr1),y
;
; neighbour_forest_count += current_line[column_index-1] == FOREST;
;
	ldx     #$00
	lda     _temp3
	sec
	sbc     #$01
	bcs     L0B2C
	dex
L0B2C:	sta     ptr1
	txa
	clc
	adc     #>(_current_line)
	sta     ptr1+1
	ldy     #<(_current_line)
	lda     (ptr1),y
	cmp     #$04
	jsr     booleq
	clc
	adc     _temp2
	sta     _temp2
;
; neighbour_forest_count += prev_line[column_index] == FOREST;
;
	ldy     _temp3
	lda     _prev_line,y
;
; break;
;
	jmp     L0F25
;
; update_list[3+i] = 0x5;
;
L0B32:	lda     _i
	clc
	adc     #$03
	bcc     L0EE5
	inx
	clc
L0EE5:	adc     #<(_update_list)
	sta     ptr1
	txa
	adc     #>(_update_list)
	sta     ptr1+1
	lda     #$05
	ldy     #$00
	sta     (ptr1),y
;
; neighbour_forest_count += current_line[column_index+1] == FOREST;
;
	ldx     #$00
	lda     _temp3
	clc
	adc     #$01
	bcc     L0B3A
	inx
L0B3A:	sta     ptr1
	txa
	clc
	adc     #>(_current_line)
	sta     ptr1+1
	ldy     #<(_current_line)
	lda     (ptr1),y
	cmp     #$04
	jsr     booleq
	clc
	adc     _temp2
	sta     _temp2
;
; neighbour_forest_count += prev_line[column_index] == FOREST;
;
	ldy     _temp3
	lda     _prev_line,y
;
; break;
;
	jmp     L0F25
;
; update_list[3+i] = 0x6;
;
L0B40:	lda     _i
	clc
	adc     #$03
	bcc     L0EE6
	inx
	clc
L0EE6:	adc     #<(_update_list)
	sta     ptr1
	txa
	adc     #>(_update_list)
	sta     ptr1+1
	lda     #$06
	ldy     #$00
	sta     (ptr1),y
;
; neighbour_forest_count += current_line[column_index-1] == FOREST;
;
	ldx     #$00
	lda     _temp3
	sec
	sbc     #$01
	bcs     L0B56
	dex
;
; break;
;
	jmp     L0B56
;
; update_list[3+i] = 0x7;
;
L0B4E:	lda     _i
	clc
	adc     #$03
	bcc     L0EE7
	inx
	clc
L0EE7:	adc     #<(_update_list)
	sta     ptr1
	txa
	adc     #>(_update_list)
	sta     ptr1+1
	lda     #$07
	ldy     #$00
	sta     (ptr1),y
;
; neighbour_forest_count += current_line[column_index+1] == FOREST;
;
	ldx     #$00
	lda     _temp3
	clc
	adc     #$01
	bcc     L0B56
	inx
L0B56:	sta     ptr1
	txa
	clc
	adc     #>(_current_line)
	sta     ptr1+1
	ldy     #<(_current_line)
	lda     (ptr1),y
	cmp     #$04
	jsr     booleq
	clc
	adc     _temp2
	sta     _temp2
;
; neighbour_forest_count += next_line[column_index] == FOREST;
;
	ldy     _temp3
	lda     _next_line,y
L0F25:	cmp     #$04
	jsr     booleq
	clc
	adc     _temp2
	sta     _temp2
;
; cell_can_be_cleared = 0;
;
L0B22:	stx     _temp4
;
; if(cell_index == ((last_row_index + column_index)&3)){
;
	lda     _temp1
	jsr     pusha0
	lda     _last_row_index
	clc
	adc     _temp3
	and     #$03
	jsr     tosicmp0
	bne     L0B6A
;
; if(neighbour_forest_count == 0){
;
	lda     _temp2
	bne     L0B61
;
; cell_can_be_cleared = 1;
;
	lda     #$01
;
; }else if(neighbour_forest_count==1){
;
	jmp     L0ED0
L0B61:	lda     _temp2
	cmp     #$01
	bne     L0B66
;
; cell_can_be_cleared = rand8() < 120;
;
	jsr     _rand8
	cmp     #$78
;
; }else{
;
	jmp     L0F0D
;
; cell_can_be_cleared = rand8() < 60;
;
L0B66:	jsr     _rand8
	cmp     #$3C
L0F0D:	jsr     boolult
L0ED0:	sta     _temp4
;
; if(cell_can_be_cleared){
;
L0B6A:	lda     _temp4
	beq     L0B6D
;
; random = rand8()&0x3F;
;
	jsr     _rand8
	and     #$3F
	sta     _temp1
;
; if(random > 9){
;
	cmp     #$0A
	bcc     L0B71
;
; update_list[3+i] = 0;
;
	ldx     #$00
	lda     _i
	clc
	adc     #$03
	bcc     L0EE8
	inx
	clc
L0EE8:	adc     #<(_update_list)
	sta     ptr1
	txa
	adc     #>(_update_list)
	sta     ptr1+1
	lda     #$00
	tay
	sta     (ptr1),y
;
; }else{
;
	jmp     L0A1A
;
; update_list[3+i] = 0x60 + random;
;
L0B71:	ldx     #$00
	lda     _i
	clc
	adc     #$03
	bcc     L0EE9
	inx
	clc
L0EE9:	adc     #<(_update_list)
	sta     ptr1
	txa
	adc     #>(_update_list)
	sta     ptr1+1
	lda     _temp1
	clc
	adc     #$60
	ldy     #$00
	sta     (ptr1),y
;
; }else{
;
	jmp     L0A1A
;
; if((cell_index < 2 && neighbour_forest_count <= 1 && (rand8()&3)) || (rand8()&3) == 0){
;
L0B6D:	lda     _temp1
	cmp     #$02
	bcs     L0EBD
	lda     _temp2
	cmp     #$02
	bcs     L0EBD
	jsr     _rand8
	and     #$03
	bne     L0B7F
L0EBD:	jsr     _rand8
	and     #$03
	bne     L0B7E
;
; update_list[3+i] = 0xB8 + (rand8()&3);
;
L0B7F:	ldx     #$00
	lda     _i
	clc
	adc     #$03
	bcc     L0EEA
	inx
	clc
L0EEA:	adc     #<(_update_list)
	tay
	txa
	adc     #>(_update_list)
	tax
	tya
	jsr     pushax
	jsr     _rand8
	and     #$03
	clc
	adc     #$B8
;
; } else {
;
	jmp     L0F0A
;
; update_list[3+i] = 0xA8 + (rand8()&3);
;
L0B7E:	ldx     #$00
	lda     _i
	clc
	adc     #$03
	bcc     L0EEB
	inx
	clc
L0EEB:	adc     #<(_update_list)
	tay
	txa
	adc     #>(_update_list)
	tax
	tya
	jsr     pushax
	jsr     _rand8
	and     #$03
	clc
	adc     #$A8
L0F0A:	ldy     #$00
	jsr     staspidx
;
; for(i=0; i<32; i++){
;
L0A1A:	lda     _i
	clc
	adc     #$01
	jmp     L0F0E
;
; if( (row_index&1) != 0){
;
L0A19:	lda     _temp0
	and     #$01
	jeq     L0B94
;
; if(row_index == 29){
;
	lda     _temp0
	cmp     #$1D
	jne     L0B98
;
; for(i=0;i<8;++i){
;
	lda     #$00
	sta     _i
L0B9A:	lda     _i
	cmp     #$08
	jcs     L0BE5
;
; update_list[38+i] = (bg_colors[current_line[1 + (i<<1)]] | (bg_colors[current_line[1 + (i<<1)+1]]<<2));
;
	ldx     #$00
	lda     _i
	clc
	adc     #$26
	bcc     L0EEC
	inx
	clc
L0EEC:	adc     #<(_update_list)
	sta     ptr2
	txa
	adc     #>(_update_list)
	sta     ptr2+1
	ldx     #$00
	lda     _i
	asl     a
	bcc     L0EED
	inx
	clc
L0EED:	adc     #$01
	bcc     L0BAA
	inx
L0BAA:	sta     ptr1
	txa
	clc
	adc     #>(_current_line)
	sta     ptr1+1
	ldy     #<(_current_line)
	lda     (ptr1),y
	sta     ptr1
	lda     #$00
	clc
	adc     #>(_bg_colors)
	sta     ptr1+1
	ldy     #<(_bg_colors)
	lda     (ptr1),y
	sta     sreg
	ldx     #$00
	lda     _i
	asl     a
	bcc     L0EEE
	inx
	clc
L0EEE:	adc     #$01
	bcc     L0EEF
	inx
	clc
L0EEF:	adc     #$01
	bcc     L0BB0
	inx
L0BB0:	sta     ptr1
	txa
	clc
	adc     #>(_current_line)
	sta     ptr1+1
	ldy     #<(_current_line)
	lda     (ptr1),y
	sta     ptr1
	lda     #$00
	clc
	adc     #>(_bg_colors)
	sta     ptr1+1
	ldy     #<(_bg_colors)
	ldx     #$00
	lda     (ptr1),y
	jsr     aslax2
	ora     sreg
	ldy     #$00
	sta     (ptr2),y
;
; for(i=0;i<8;++i){
;
	inc     _i
	jmp     L0B9A
;
; }else if( (row_index&3) == 3 ){
;
L0B98:	lda     _temp0
	and     #$03
	cmp     #$03
	jne     L0BB2
;
; for(i=0;i<8;++i){
;
	lda     #$00
	sta     _i
L0BB6:	lda     _i
	cmp     #$08
	jcs     L0BE5
;
; update_list[38+i] = (bg_colors[current_line[1 + (i<<1)]] | (bg_colors[current_line[1 + (i<<1)+1]]<<2))<<4;
;
	ldx     #$00
	lda     _i
	clc
	adc     #$26
	bcc     L0EF0
	inx
	clc
L0EF0:	adc     #<(_update_list)
	sta     ptr2
	txa
	adc     #>(_update_list)
	sta     ptr2+1
	ldx     #$00
	lda     _i
	asl     a
	bcc     L0EF1
	inx
	clc
L0EF1:	adc     #$01
	bcc     L0BC6
	inx
L0BC6:	sta     ptr1
	txa
	clc
	adc     #>(_current_line)
	sta     ptr1+1
	ldy     #<(_current_line)
	lda     (ptr1),y
	sta     ptr1
	lda     #$00
	clc
	adc     #>(_bg_colors)
	sta     ptr1+1
	ldy     #<(_bg_colors)
	lda     (ptr1),y
	sta     sreg
	ldx     #$00
	lda     _i
	asl     a
	bcc     L0EF2
	inx
	clc
L0EF2:	adc     #$01
	bcc     L0EF3
	inx
	clc
L0EF3:	adc     #$01
	bcc     L0BCC
	inx
L0BCC:	sta     ptr1
	txa
	clc
	adc     #>(_current_line)
	sta     ptr1+1
	ldy     #<(_current_line)
	lda     (ptr1),y
	sta     ptr1
	lda     #$00
	clc
	adc     #>(_bg_colors)
	sta     ptr1+1
	ldy     #<(_bg_colors)
	ldx     #$00
	lda     (ptr1),y
	jsr     aslax2
	ora     sreg
	asl     a
	asl     a
	asl     a
	asl     a
	ldy     #$00
	sta     (ptr2),y
;
; for(i=0;i<8;++i){
;
	inc     _i
	jmp     L0BB6
;
; for(i=0;i<8;++i){
;
L0BB2:	lda     #$00
	sta     _i
L0BCE:	lda     _i
	cmp     #$08
	jcs     L0BE5
;
; update_list[38+i] += (bg_colors[current_line[1 + (i<<1)]] | (bg_colors[current_line[1 + (i<<1)+1]]<<2));
;
	ldx     #$00
	lda     _i
	clc
	adc     #$26
	bcc     L0EF4
	inx
	clc
L0EF4:	adc     #<(_update_list)
	tay
	txa
	adc     #>(_update_list)
	tax
	tya
	jsr     pushax
	sta     ptr1
	stx     ptr1+1
	ldx     #$00
	lda     (ptr1,x)
	sta     ptr2
	lda     _i
	asl     a
	bcc     L0EF5
	inx
	clc
L0EF5:	adc     #$01
	bcc     L0BDE
	inx
L0BDE:	sta     ptr1
	txa
	clc
	adc     #>(_current_line)
	sta     ptr1+1
	ldy     #<(_current_line)
	lda     (ptr1),y
	sta     ptr1
	lda     #$00
	clc
	adc     #>(_bg_colors)
	sta     ptr1+1
	ldy     #<(_bg_colors)
	lda     (ptr1),y
	sta     sreg
	ldx     #$00
	lda     _i
	asl     a
	bcc     L0EF6
	inx
	clc
L0EF6:	adc     #$01
	bcc     L0EF7
	inx
	clc
L0EF7:	adc     #$01
	bcc     L0BE4
	inx
L0BE4:	sta     ptr1
	txa
	clc
	adc     #>(_current_line)
	sta     ptr1+1
	ldy     #<(_current_line)
	lda     (ptr1),y
	sta     ptr1
	lda     #$00
	clc
	adc     #>(_bg_colors)
	sta     ptr1+1
	ldy     #<(_bg_colors)
	ldx     #$00
	lda     (ptr1),y
	jsr     aslax2
	ora     sreg
	clc
	adc     ptr2
	ldy     #$00
	jsr     staspidx
;
; for(i=0;i<8;++i){
;
	inc     _i
	jmp     L0BCE
;
; current_line[1] = WALL;
;
L0B94:	lda     #$01
	sta     _current_line+1
;
; current_line[16] = WALL;
;
	sta     _current_line+16
;
; scroll(0, scr);
;
L0BE5:	jsr     push0
	lda     _scr
	ldx     _scr+1
	jmp     _scroll

.endproc

; ---------------------------------------------------------------
; void __near__ reset (void)
; ---------------------------------------------------------------

.segment	"CODE"

.proc	_reset: near

.segment	"CODE"

;
; craft_x[0]=78;
;
	lda     #$4E
	sta     _craft_x
;
; craft_y[0]=180;
;
	lda     #$B4
	sta     _craft_y
;
; craft_x[1]=178;
;
	lda     #$B2
	sta     _craft_x+1
;
; craft_y[1]=180;
;
	lda     #$B4
	sta     _craft_y+1
;
; wall_hit_x[0] = 255;
;
	lda     #$FF
	sta     _wall_hit_x
;
; wall_hit_x[1] = 255;
;
	sta     _wall_hit_x+1
;
; wall_hit_hp[0] = 0;
;
	lda     #$00
	sta     _wall_hit_hp
;
; wall_hit_hp[1] = 0;
;
	sta     _wall_hit_hp+1
;
; sprite_dirs[0] = DIR_UP;
;
	lda     #$01
	sta     _sprite_dirs
;
; sprite_dirs[1] = DIR_UP;
;
	sta     _sprite_dirs+1
;
; sprite_look_dirs[0] = 0;
;
	lda     #$00
	sta     _sprite_look_dirs
;
; sprite_look_dirs[1] = 0;
;
	sta     _sprite_look_dirs+1
;
; craft_types[0] = 0;
;
	sta     _craft_types
;
; craft_types[1] = 1;
;
	lda     #$01
	sta     _craft_types+1
;
; craft_bullet_timers[0] = 0;
;
	lda     #$00
	sta     _craft_bullet_timers
;
; craft_bullet_timers[1] = 0;
;
	sta     _craft_bullet_timers+1
;
; for(i=0; i<18; i++){
;
L0F4C:	sta     _i
	cmp     #$12
	bcs     L0C21
;
; next_line[i] = current_line[i] = prev_line[i] = GRASS;
;
	lda     #<(_next_line)
	ldx     #>(_next_line)
	clc
	adc     _i
	bcc     L0C2A
	inx
L0C2A:	jsr     pushax
	lda     #<(_current_line)
	ldx     #>(_current_line)
	clc
	adc     _i
	bcc     L0C2D
	inx
L0C2D:	jsr     pushax
	ldy     _i
	lda     #$00
	sta     _prev_line,y
	tay
	jsr     staspidx
	tay
	jsr     staspidx
;
; for(i=0; i<18; i++){
;
	lda     _i
	clc
	adc     #$01
	jmp     L0F4C
;
; next_line[0] = next_line[1] = WALL;
;
L0C21:	lda     #$01
	sta     _next_line+1
	sta     _next_line
;
; next_line[16] = next_line[17] = WALL;
;
	sta     _next_line+17
	sta     _next_line+16
;
; current_line[0] = WALL_GREEN;
;
	lda     #$03
	sta     _current_line
;
; current_line[1] = WALL;
;
	lda     #$01
	sta     _current_line+1
;
; current_line[16] = WALL;
;
	sta     _current_line+16
;
; current_line[17] = WALL_GREEN;
;
	lda     #$03
	sta     _current_line+17
;
; prev_line[0] = prev_line[1] = WALL;
;
	lda     #$01
	sta     _prev_line+1
	sta     _prev_line
;
; prev_line[16] = prev_line[17] = WALL;
;
	sta     _prev_line+17
	sta     _prev_line+16
;
; wall_count = 50;
;
	lda     #$32
	sta     _wall_count
;
; has_big_wall = 0;
;
	lda     #$00
	sta     _has_big_wall
;
; for(i=0; i<6; i++){
;
L0F4D:	sta     _i
	cmp     #$06
	bcs     L0C57
;
; craft_flags[i] = 0;
;
	ldy     _i
	lda     #$00
	sta     _craft_flags,y
;
; for(i=0; i<6; i++){
;
	lda     _i
	clc
	adc     #$01
	jmp     L0F4D
;
; for(i=0; i<ENEMY_BULLET_COUNT; i++){
;
L0C57:	lda     #$00
L0F4E:	sta     _i
	cmp     #$0C
	bcs     L0C63
;
; craft_bullet_y[i] = 255;
;
	ldy     _i
	lda     #$FF
	sta     _craft_bullet_y,y
;
; for(i=0; i<ENEMY_BULLET_COUNT; i++){
;
	lda     _i
	clc
	adc     #$01
	jmp     L0F4E
;
; for(i=0; i<15; i++){
;
L0C63:	lda     #$00
L0F4F:	sta     _i
	cmp     #$0F
	bcs     L0C6F
;
; blocked[i] = 0;
;
	ldx     #$00
	lda     _i
	asl     a
	bcc     L0F4A
	inx
	clc
L0F4A:	adc     #<(_blocked)
	sta     ptr1
	txa
	adc     #>(_blocked)
	sta     ptr1+1
	lda     #$00
	tay
	sta     (ptr1),y
	iny
	sta     (ptr1),y
;
; bullet_blocked[i] = 0;
;
	tax
	lda     _i
	asl     a
	bcc     L0F4B
	inx
	clc
L0F4B:	adc     #<(_bullet_blocked)
	sta     ptr1
	txa
	adc     #>(_bullet_blocked)
	sta     ptr1+1
	lda     #$00
	dey
	sta     (ptr1),y
	iny
	sta     (ptr1),y
;
; for(i=0; i<15; i++){
;
	lda     _i
	clc
	adc     #$01
	jmp     L0F4F
;
; }
;
L0C6F:	rts

.endproc

; ---------------------------------------------------------------
; void __near__ tick_enemies (void)
; ---------------------------------------------------------------

.segment	"CODE"

.proc	_tick_enemies: near

.segment	"CODE"

;
; for(i=2; i<6; i++){
;
	lda     #$02
L0F57:	sta     _i
	cmp     #$06
	bcc     L0F58
;
; }
;
	rts
;
; if(craft_types[i] == 255){
;
L0F58:	ldy     _i
	lda     _craft_types,y
	cmp     #$FF
	jne     L0C85
;
; if(enemy_spawn_scr == 0){
;
	lda     _enemy_spawn_scr
	jne     L0CB7
;
; enemy_spawn_scr = 32 + (rand8()&31);
;
	jsr     _rand8
	and     #$1F
	clc
	adc     #$20
	sta     _enemy_spawn_scr
;
; spawn_x = rand8()&15;
;
	jsr     _rand8
	and     #$0F
L0F53:	sta     _temp5
;
; while((blocked[0] & (1<<spawn_x))){
;
L0C91:	lda     _blocked
	ldx     _blocked+1
	jsr     pushax
	lda     #$01
	jsr     pusha0
	lda     _temp5
	jsr     tosaslax
	jsr     tosandax
	stx     tmp1
	ora     tmp1
	beq     L0C92
;
; spawn_x++;
;
	lda     _temp5
	clc
	adc     #$01
	sta     _temp5
;
; if(spawn_x == 16) spawn_x = 0;
;
	cmp     #$10
	bne     L0C91
	lda     #$00
;
; }                    
;
	jmp     L0F53
;
; new_x = spawn_x*16 + (rand8()&7);
;
L0C92:	tax
	lda     _temp5
	jsr     shlax4
	jsr     pushax
	jsr     _rand8
	and     #$07
	jsr     tosadda0
	sta     _temp2
;
; new_y = 0;
;
	lda     #$00
	sta     _temp3
;
; move_dir = DIR_DOWN;
;
	lda     #$04
	sta     _temp1
;
; sprite_look_dirs[i] = 0;
;
	ldy     _i
	lda     #$00
	sta     _sprite_look_dirs,y
;
; craft_types[i] = 1;
;
	ldy     _i
	lda     #$01
	sta     _craft_types,y
;
; craft_flags[i] = 15;
;
	ldy     _i
	lda     #$0F
	sta     _craft_flags,y
;
; craft_hps[i] = 2;
;
	ldy     _i
	lda     #$02
	sta     _craft_hps,y
;
; craft_bullet_timers[i] = rand8()&127;
;
	lda     #<(_craft_bullet_timers)
	ldx     #>(_craft_bullet_timers)
	clc
	adc     _i
	bcc     L0CB5
	inx
L0CB5:	jsr     pushax
	jsr     _rand8
	and     #$7F
	ldy     #$00
	jsr     staspidx
;
; else
;
	jmp     L0CB7
;
; move_dir = sprite_dirs[i];
;
L0C85:	ldy     _i
	lda     _sprite_dirs,y
	sta     _temp1
;
; new_x = craft_x[i];
;
	ldy     _i
	lda     _craft_x,y
	sta     _temp2
;
; new_y = craft_y[i];
;
	ldy     _i
	lda     _craft_y,y
	sta     _temp3
;
; if((frame+i)&3){
;
	lda     _frame
	clc
	adc     _i
	and     #$03
	jeq     L0CC4
;
; if(frame&3){
;
	lda     _frame
	and     #$03
	beq     L0CCC
;
; if(move_dir&DIR_LEFT){
;
	lda     _temp1
	and     #$08
	beq     L0CC9
;
; new_x--;
;
	lda     _temp2
	sec
	sbc     #$01
	sta     _temp2
;
; if(move_dir&DIR_RIGHT){
;
L0CC9:	lda     _temp1
	and     #$02
	beq     L0CCC
;
; new_x++;
;
	lda     _temp2
	clc
	adc     #$01
	sta     _temp2
;
; if((frame&3) != 1){
;
L0CCC:	lda     _frame
	and     #$03
	cmp     #$01
	beq     L0CCF
;
; if(move_dir&DIR_UP){
;
	lda     _temp1
	and     #$01
	beq     L0CD3
;
; new_y--;
;
	lda     _temp3
	sec
	sbc     #$01
	sta     _temp3
;
; if(move_dir&DIR_DOWN){
;
L0CD3:	lda     _temp1
	and     #$04
	beq     L0CCF
;
; new_y++;
;
	lda     _temp3
	clc
	adc     #$01
	sta     _temp3
;
; move_reset = craft_flags[i]&15;
;
L0CCF:	ldy     _i
	lda     _craft_flags,y
	and     #$0F
	sta     _temp4
;
; if(move_reset && (frame & 7) == 0){
;
	lda     _temp4
	beq     L0CDD
	lda     _frame
	and     #$07
	bne     L0CDD
;
; craft_flags[i]--;
;
	lda     #<(_craft_flags)
	ldx     #>(_craft_flags)
	clc
	adc     _i
	bcc     L0CE5
	inx
L0CE5:	sta     sreg
	stx     sreg+1
	sta     ptr1
	stx     ptr1+1
	ldy     #$00
	lda     (ptr1),y
	sec
	sbc     #$01
	sta     (sreg),y
;
; if(move_reset == 0 || (new_y < 20 && move_dir == DIR_UP) || (new_y > 220 && move_dir == DIR_DOWN)|| isFreeIn(new_x, new_y) == FALSE){
;
L0CDD:	lda     _temp4
	beq     L0CE7
	lda     _temp3
	cmp     #$14
	bcs     L0F51
	lda     _temp1
	cmp     #$01
	beq     L0CE7
L0F51:	lda     _temp3
	cmp     #$DD
	bcc     L0F52
	lda     _temp1
	cmp     #$04
	beq     L0CE7
L0F52:	lda     _temp2
	jsr     pusha
	lda     _temp3
	jsr     _isFreeIn
	cmp     #$00
	jne     L0CC4
;
; new_x = craft_x[i];
;
L0CE7:	ldy     _i
	lda     _craft_x,y
	sta     _temp2
;
; new_y = craft_y[i];
;
	ldy     _i
	lda     _craft_y,y
	sta     _temp3
;
; if(isFreeIn(new_x, new_y-1) == FALSE){
;
	lda     _temp2
	jsr     pusha
	lda     _temp3
	sec
	sbc     #$01
	jsr     _isFreeIn
	cmp     #$00
	bne     L0CF9
;
; move_dir |= DIR_UP;
;
	lda     _temp1
	ora     #$01
	sta     _temp1
;
; if(isFreeIn(new_x, new_y+1) == FALSE){
;
L0CF9:	lda     _temp2
	jsr     pusha
	lda     _temp3
	clc
	adc     #$01
	jsr     _isFreeIn
	cmp     #$00
	bne     L0D00
;
; move_dir |= DIR_DOWN;
;
	lda     _temp1
	ora     #$04
	sta     _temp1
;
; if(isFreeIn(new_x-1, new_y) == FALSE){
;
L0D00:	lda     _temp2
	sec
	sbc     #$01
	jsr     pusha
	lda     _temp3
	jsr     _isFreeIn
	cmp     #$00
	bne     L0D07
;
; move_dir |= DIR_LEFT;
;
	lda     _temp1
	ora     #$08
	sta     _temp1
;
; if(isFreeIn(new_x+1, new_y) == FALSE){
;
L0D07:	lda     _temp2
	clc
	adc     #$01
	jsr     pusha
	lda     _temp3
	jsr     _isFreeIn
	cmp     #$00
	bne     L0D0E
;
; move_dir |= DIR_RIGHT;
;
	lda     _temp1
	ora     #$02
	sta     _temp1
;
; if(new_y < 20){
;
L0D0E:	lda     _temp3
	cmp     #$14
	bcs     L0D15
;
; move_dir |= DIR_UP;
;
	lda     _temp1
	ora     #$01
	sta     _temp1
;
; if(new_y > 220){
;
L0D15:	lda     _temp3
	cmp     #$DD
	bcc     L0D19
;
; move_dir |= DIR_DOWN;
;
	lda     _temp1
	ora     #$04
	sta     _temp1
;
; craft_flags[i] = (craft_flags[i]&0xF0) + 4 + (rand8()&11);
;
L0D19:	lda     #<(_craft_flags)
	ldx     #>(_craft_flags)
	clc
	adc     _i
	bcc     L0D1F
	inx
L0D1F:	jsr     pushax
	ldy     _i
	lda     _craft_flags,y
	ldx     #$00
	and     #$F0
	clc
	adc     #$04
	bcc     L0D24
	inx
L0D24:	jsr     pushax
	jsr     _rand8
	and     #$0B
	jsr     tosadda0
	ldy     #$00
	jsr     staspidx
;
; if(move_dir == 0xF){
;
	lda     _temp1
	cmp     #$0F
	bne     L0D26
;
; craft_types[i] = 255;
;
	ldy     _i
	lda     #$FF
	sta     _craft_types,y
;
; continue;
;
	jmp     L0C7F
;
; }else if(move_dir == 0){
;
L0D26:	lda     _temp1
	bne     L0D2D
;
; move_dir = (1<<(rand8()&3));
;
	lda     #$01
	jsr     pusha0
	jsr     _rand8
	and     #$03
	jsr     tosaslax
;
; } else {
;
	jmp     L0F54
;
; move_dir = rand8()&3;
;
L0D2D:	jsr     _rand8
	and     #$03
	sta     _temp1
;
; sprite_dirs[i] = (1<<(rand8()&3));
;
L0D36:	lda     #<(_sprite_dirs)
	ldx     #>(_sprite_dirs)
	clc
	adc     _i
	bcc     L0D3B
	inx
L0D3B:	jsr     pushax
	lda     #$01
	jsr     pusha0
	jsr     _rand8
	and     #$03
	jsr     tosaslax
	ldy     #$00
	jsr     staspidx
;
; }while(sprite_dirs[i]&move_dir);
;
	ldy     _i
	lda     _sprite_dirs,y
	sta     ptr1
	lda     _temp1
	and     ptr1
	pha
	pla
	bne     L0D36
;
; move_dir = sprite_dirs[i];
;
	ldy     _i
	lda     _sprite_dirs,y
L0F54:	sta     _temp1
;
; if(craft_bullet_timers[i])
;
L0CC4:	ldy     _i
	lda     _craft_bullet_timers,y
	beq     L0D46
;
; craft_bullet_timers[i]--;
;
	lda     #<(_craft_bullet_timers)
	ldx     #>(_craft_bullet_timers)
	clc
	adc     _i
	bcc     L0D4C
	inx
L0D4C:	sta     sreg
	stx     sreg+1
	sta     ptr1
	stx     ptr1+1
	ldy     #$00
	lda     (ptr1),y
	sec
	sbc     #$01
	sta     (sreg),y
;
; if(craft_bullet_timers[i] == 0)
;
L0D46:	ldy     _i
	lda     _craft_bullet_timers,y
	jne     L0D52
;
; for(j=CRAFT_BULLET_COUNT; j < ENEMY_BULLET_COUNT; j++){
;
	lda     #$08
L0F55:	sta     _j
	cmp     #$0C
	bcs     L0D52
;
; if(craft_bullet_y[j] != 255) continue;
;
	ldy     _j
	lda     _craft_bullet_y,y
	cmp     #$FF
	bne     L0D53
;
; craft_bullet_x[j] = craft_x[i];
;
	lda     #<(_craft_bullet_x)
	ldx     #>(_craft_bullet_x)
	clc
	adc     _j
	bcc     L0D5F
	inx
L0D5F:	sta     ptr1
	stx     ptr1+1
	ldy     _i
	lda     _craft_x,y
	ldy     #$00
	sta     (ptr1),y
;
; craft_bullet_y[j] = craft_y[i];
;
	lda     #<(_craft_bullet_y)
	ldx     #>(_craft_bullet_y)
	clc
	adc     _j
	bcc     L0D65
	inx
L0D65:	sta     ptr1
	stx     ptr1+1
	ldy     _i
	lda     _craft_y,y
	ldy     #$00
	sta     (ptr1),y
;
; craft_bullet_flag[j] = sprite_dirs[i];
;
	lda     #<(_craft_bullet_flag)
	ldx     #>(_craft_bullet_flag)
	clc
	adc     _j
	bcc     L0D6B
	inx
L0D6B:	sta     ptr1
	stx     ptr1+1
	ldy     _i
	lda     _sprite_dirs,y
	ldy     #$00
	sta     (ptr1),y
;
; craft_bullet_timers[i] = 64 + (rand8()&127);
;
	lda     #<(_craft_bullet_timers)
	ldx     #>(_craft_bullet_timers)
	clc
	adc     _i
	bcc     L0D71
	inx
L0D71:	jsr     pushax
	jsr     _rand8
	and     #$7F
	clc
	adc     #$40
	ldy     #$00
	jsr     staspidx
;
; break;
;
	jmp     L0D52
;
; for(j=CRAFT_BULLET_COUNT; j < ENEMY_BULLET_COUNT; j++){
;
L0D53:	lda     _j
	clc
	adc     #$01
	jmp     L0F55
;
; if(new_y >= MAX_Y-1 || craft_hps[i] == 0){
;
L0D52:	lda     _temp3
	cmp     #$EC
	bcs     L0D76
	ldy     _i
	lda     _craft_hps,y
	bne     L0D75
;
; craft_types[i] = 255;
;
L0D76:	ldy     _i
	lda     #$FF
	sta     _craft_types,y
;
; continue;
;
	jmp     L0C7F
;
; for(j=0; j<2; j++){
;
L0D75:	lda     #$00
L0F56:	sta     _j
	cmp     #$02
	jcs     L0CB7
;
; if(craft_lives[j] != 0){
;
	ldy     _j
	lda     _craft_lives,y
	jeq     L0D81
;
; if(new_x > craft_x[j]-12 && new_x < craft_x[j]+12 && new_y > craft_y[j]-12 && new_y < craft_y[j]+12){
;
	lda     _temp2
	jsr     pusha0
	ldy     _j
	lda     _craft_x,y
	sec
	sbc     #$0C
	bcs     L0D8F
	ldx     #$FF
L0D8F:	jsr     tosicmp
	bcc     L0D81
	beq     L0D81
	lda     _temp2
	jsr     pusha0
	ldy     _j
	lda     _craft_x,y
	clc
	adc     #$0C
	bcc     L0D93
	ldx     #$01
L0D93:	jsr     tosicmp
	bcs     L0D81
	lda     _temp3
	jsr     pusha0
	ldy     _j
	lda     _craft_y,y
	sec
	sbc     #$0C
	bcs     L0D96
	ldx     #$FF
L0D96:	jsr     tosicmp
	bcc     L0D81
	beq     L0D81
	lda     _temp3
	jsr     pusha0
	ldy     _j
	lda     _craft_y,y
	clc
	adc     #$0C
	bcc     L0D99
	ldx     #$01
L0D99:	jsr     tosicmp
	bcs     L0D81
;
; damage_craft(j, 2);
;
	jsr     decsp2
	lda     _j
	ldy     #$01
	sta     (sp),y
	lda     #$02
	dey
	sta     (sp),y
	jsr     _damage_craft
;
; craft_types[i] = 255;
;
	ldy     _i
	lda     #$FF
	sta     _craft_types,y
;
; break;
;
	jmp     L0CB7
;
; for(j=0; j<2; j++){
;
L0D81:	lda     _j
	clc
	adc     #$01
	jmp     L0F56
;
; craft_x[i] = new_x;
;
L0CB7:	ldy     _i
	lda     _temp2
	sta     _craft_x,y
;
; craft_y[i] = new_y;
;
	ldy     _i
	lda     _temp3
	sta     _craft_y,y
;
; sprite_dirs[i] = move_dir;
;
	ldy     _i
	lda     _temp1
	sta     _sprite_dirs,y
;
; for(i=2; i<6; i++){
;
L0C7F:	lda     _i
	clc
	adc     #$01
	jmp     L0F57

.endproc

; ---------------------------------------------------------------
; void __near__ check_pause (void)
; ---------------------------------------------------------------

.segment	"CODE"

.proc	_check_pause: near

.segment	"CODE"

;
; if((pad_poll(0)|pad_poll(1)) & PAD_START){
;
	lda     #$00
	jsr     _pad_poll
	jsr     pushax
	lda     #$01
	jsr     _pad_poll
	jsr     tosorax
	and     #$08
	bne     L0F5C
;
; }
;
	rts
;
; alpha = 4;
;
L0F5C:	lda     #$04
	sta     _temp0
;
; while(alpha>0){
;
L0DB6:	lda     _temp0
	beq     L0DB7
;
; alpha--;
;
	lda     _temp0
	sec
	sbc     #$01
	sta     _temp0
;
; pal_bright(alpha);
;
	jsr     _pal_bright
;
; remaining_frame = 3;
;
	lda     #$03
	sta     _temp1
;
; while(remaining_frame--){
;
L0DBE:	lda     _temp1
	pha
	sec
	sbc     #$01
	sta     _temp1
	pla
	tax
	beq     L0DB6
;
; ppu_wait_frame();
;
	jsr     _ppu_wait_frame
;
; }
;
	jmp     L0DBE
;
; oam_clear();
;
L0DB7:	jsr     _oam_clear
;
; spr=0;
;
	lda     #$00
	sta     _spr
;
; for(i=0; i<7; i++){
;
L0F5B:	sta     _i
	cmp     #$07
	bcs     L0DC6
;
; spr=oam_spr(100+(i<<3), 100, 0xF2+(i<<1), 3, spr);
;
	jsr     decsp4
	ldx     #$00
	lda     _i
	jsr     aslax3
	clc
	adc     #$64
	ldy     #$03
	sta     (sp),y
	lda     #$64
	dey
	sta     (sp),y
	lda     _i
	asl     a
	bcc     L0F5A
	clc
L0F5A:	adc     #$F2
	dey
	sta     (sp),y
	lda     #$03
	dey
	sta     (sp),y
	lda     _spr
	jsr     _oam_spr
	sta     _spr
;
; for(i=0; i<7; i++){
;
	lda     _i
	clc
	adc     #$01
	jmp     L0F5B
;
; alpha = 0;
;
L0DC6:	lda     #$00
	sta     _temp0
;
; while(alpha<4){
;
L0DDA:	lda     _temp0
	cmp     #$04
	bcs     L0DDB
;
; alpha++;
;
	lda     _temp0
	clc
	adc     #$01
	sta     _temp0
;
; pal_spr_bright(alpha);
;
	jsr     _pal_spr_bright
;
; remaining_frame = 3;
;
	lda     #$03
	sta     _temp1
;
; while(remaining_frame--){
;
L0DE2:	lda     _temp1
	pha
	sec
	sbc     #$01
	sta     _temp1
	pla
	tax
	beq     L0DDA
;
; ppu_wait_frame();
;
	jsr     _ppu_wait_frame
;
; }
;
	jmp     L0DE2
;
; ppu_wait_frame();
;
L0DDB:	jsr     _ppu_wait_frame
;
; if((pad_poll(0)|pad_poll(1)) & PAD_START) break;
;
	lda     #$00
	jsr     _pad_poll
	jsr     pushax
	lda     #$01
	jsr     _pad_poll
	jsr     tosorax
	and     #$08
	beq     L0DDB
;
; alpha = 4;
;
	lda     #$04
	sta     _temp0
;
; while(alpha>0){
;
L0DF1:	lda     _temp0
	beq     L0DF2
;
; alpha--;
;
	lda     _temp0
	sec
	sbc     #$01
	sta     _temp0
;
; pal_spr_bright(alpha);
;
	jsr     _pal_spr_bright
;
; remaining_frame = 3;
;
	lda     #$03
	sta     _temp1
;
; while(remaining_frame--){
;
L0DF9:	lda     _temp1
	pha
	sec
	sbc     #$01
	sta     _temp1
	pla
	tax
	beq     L0DF1
;
; ppu_wait_frame();
;
	jsr     _ppu_wait_frame
;
; }
;
	jmp     L0DF9
;
; oam_clear();
;
L0DF2:	jsr     _oam_clear
;
; spr=0;
;
	lda     #$00
	sta     _spr
;
; draw_all();
;
	jsr     _draw_all
;
; alpha = 0;
;
	lda     #$00
	sta     _temp0
;
; while(alpha<4){
;
L0E03:	lda     _temp0
	cmp     #$04
	bcs     L0E04
;
; alpha++;
;
	lda     _temp0
	clc
	adc     #$01
	sta     _temp0
;
; pal_bright(alpha);
;
	jsr     _pal_bright
;
; remaining_frame = 3;
;
	lda     #$03
	sta     _temp1
;
; while(remaining_frame--){
;
L0E0B:	lda     _temp1
	pha
	sec
	sbc     #$01
	sta     _temp1
	pla
	tax
	beq     L0E03
;
; ppu_wait_frame();
;
	jsr     _ppu_wait_frame
;
; }
;
	jmp     L0E0B
;
; }
;
L0E04:	rts

.endproc

; ---------------------------------------------------------------
; void __near__ main (void)
; ---------------------------------------------------------------

.segment	"CODE"

.proc	_main: near

.segment	"CODE"

;
; init();
;
	jsr     _init
;
; reset();
;
	jsr     _reset
;
; menu();
;
	jsr     _menu
;
; oam_clear();
;
	jsr     _oam_clear
;
; while(scr!=240){
;
L0E14:	lda     _scr+1
	bne     L0F5D
	lda     _scr
	cmp     #$F0
	beq     L0E15
;
; ppu_wait_frame();
;
L0F5D:	jsr     _ppu_wait_frame
;
; temp1 = 4;
;
	lda     #$04
	sta     _temp1
;
; scroll_screen();
;
	jsr     _scroll_screen
;
; ++frame;
;
	inc     _frame
;
; }
;
	jmp     L0E14
;
; temp5 = 0;
;
L0E15:	lda     #$00
	sta     _temp5
;
; craft_x[0]=78;
;
	lda     #$4E
	sta     _craft_x
;
; craft_y[0]=200;
;
	lda     #$C8
	sta     _craft_y
;
; craft_x[1]=178;
;
	lda     #$B2
	sta     _craft_x+1
;
; craft_y[1]=200;
;
	lda     #$C8
	sta     _craft_y+1
;
; craft_types[2] = 255;
;
	lda     #$FF
	sta     _craft_types+2
;
; craft_types[3] = 255;
;
	sta     _craft_types+3
;
; craft_types[4] = 255;
;
	sta     _craft_types+4
;
; craft_types[5] = 255;
;
	sta     _craft_types+5
;
; craft_hps[0] = 8;
;
	lda     #$08
	sta     _craft_hps
;
; craft_hps[1] = 8;
;
	sta     _craft_hps+1
;
; enemy_spawn_scr = 10;
;
	lda     #$0A
	sta     _enemy_spawn_scr
;
; ppu_wait_frame();
;
L0E3F:	jsr     _ppu_wait_frame
;
; oam_clear();
;
	jsr     _oam_clear
;
; spr=0;
;
	lda     #$00
	sta     _spr
;
; tick_crafts();
;
	jsr     _tick_crafts
;
; tick_enemies();
;
	jsr     _tick_enemies
;
; tick_bullets();
;
	jsr     _tick_bullets
;
; draw_all();
;
	jsr     _draw_all
;
; temp1 = 0;
;
	lda     #$00
	sta     _temp1
;
; if(craft_lives[0] && craft_y[0] < 150) temp1 = 150-craft_y[0];
;
	lda     _craft_lives
	beq     L0E4C
	lda     _craft_y
	cmp     #$96
	bcs     L0E4C
	lda     #$96
	sec
	sbc     _craft_y
	sta     _temp1
;
; if(craft_lives[1] && craft_y[1] < 150){
;
L0E4C:	lda     _craft_lives+1
	beq     L0E5E
	lda     _craft_y+1
	cmp     #$96
	bcs     L0E5E
;
; temp2 = 150-craft_y[1];
;
	lda     #$96
	sec
	sbc     _craft_y+1
	sta     _temp2
;
; if(temp2 > temp1){
;
	sec
	sbc     _temp1
	bcc     L0E5E
	beq     L0E5E
;
; temp1 = temp2;
;
	lda     _temp2
	sta     _temp1
;
; scroll_screen();
;
L0E5E:	jsr     _scroll_screen
;
; check_pause();
;
	jsr     _check_pause
;
; ++frame;
;
	inc     _frame
;
; }
;
	jmp     L0E3F

.endproc

